(dp0
S'e_p'
p1
(lp2
(S'./data/1_pilar.TextGrid'
p3
ccopy_reg
_reconstructor
p4
(cset_diphone_library
Diphone
p5
c__builtin__
object
p6
Ntp7
Rp8
(dp9
S'c_diphone'
p10
S'e'
p11
sS'n_start'
p12
S'0.71000'
p13
sS'n_diphone'
p14
S'p'
p15
sS'n_end'
p16
S'0.74000'
p17
sS'filename'
p18
g3
sS'c_end'
p19
S'0.71000'
p20
sS'c_start'
p21
S'0.67000'
p22
sbtp23
a(g3
g4
(g5
g6
Ntp24
Rp25
(dp26
g10
g11
sg12
S'0.80000'
p27
sg14
g15
sg16
S'0.83000'
p28
sg18
g3
sg19
S'0.80000'
p29
sg21
S'0.77000'
p30
sbtp31
asS'b_aS'
p32
(lp33
(S'./data/21_pilar.TextGrid'
p34
g4
(g5
g6
Ntp35
Rp36
(dp37
g10
S'b'
p38
sg12
S'0.39000'
p39
sg14
S'aS'
p40
sg16
S'0.42000'
p41
sg18
g34
sg19
S'0.39000'
p42
sg21
S'0.35000'
p43
sbtp44
asS'u_n'
p45
(lp46
(S'./data/19_pilar.TextGrid'
p47
g4
(g5
g6
Ntp48
Rp49
(dp50
g10
S'u'
p51
sg12
S'0.88000'
p52
sg14
S'n'
p53
sg16
S'0.92000'
p54
sg18
g47
sg19
S'0.88000'
p55
sg21
S'0.69000'
p56
sbtp57
a(S'./data/3_pilar.TextGrid'
p58
g4
(g5
g6
Ntp59
Rp60
(dp61
g10
g51
sg12
S'0.31000'
p62
sg14
g53
sg16
S'0.42000'
p63
sg18
g58
sg19
S'0.31000'
p64
sg21
S'0.28000'
p65
sbtp66
a(g58
g4
(g5
g6
Ntp67
Rp68
(dp69
g10
g51
sg12
S'2.13000'
p70
sg14
g53
sg16
S'2.40000'
p71
sg18
g58
sg19
S'2.13000'
p72
sg21
S'2.10000'
p73
sbtp74
a(S'./data/6_pilar.TextGrid'
p75
g4
(g5
g6
Ntp76
Rp77
(dp78
g10
g51
sg12
S'0.99000'
p79
sg14
g53
sg16
S'1.12000'
p80
sg18
g75
sg19
S'0.99000'
p81
sg21
S'0.92000'
p82
sbtp83
asS'sil_ll'
p84
(lp85
(S'./data/39_pilar.TextGrid'
p86
g4
(g5
g6
Ntp87
Rp88
(dp89
g10
S'sil'
p90
sg12
S'0.21000'
p91
sg14
S'll'
p92
sg16
S'0.24000'
p93
sg18
g86
sg19
S'0.21000'
p94
sg21
S'0.00000'
p95
sbtp96
a(S'./data/22_pilar.TextGrid'
p97
g4
(g5
g6
Ntp98
Rp99
(dp100
g10
S'sil'
p101
sg12
S'0.10000'
p102
sg14
S'll'
p103
sg16
S'0.13000'
p104
sg18
g97
sg19
S'0.10000'
p105
sg21
S'0.00000'
p106
sbtp107
asS'h_sil'
p108
(lp109
(S'./data/16_pilar.TextGrid'
p110
g4
(g5
g6
Ntp111
Rp112
(dp113
g10
S'h'
p114
sg12
S'1.94000'
p115
sg14
S'sil'
p116
sg16
S'1.96000'
p117
sg18
g110
sg19
S'1.94000'
p118
sg21
S'1.61000'
p119
sbtp120
a(S'./data/11_pilar.TextGrid'
p121
g4
(g5
g6
Ntp122
Rp123
(dp124
g10
g114
sg12
S'1.96000'
p125
sg14
S'sil'
p126
sg16
S'1.98000'
p127
sg18
g121
sg19
S'1.96000'
p128
sg21
S'1.60000'
p129
sbtp130
a(S'./data/15_pilar.TextGrid'
p131
g4
(g5
g6
Ntp132
Rp133
(dp134
g10
g114
sg12
S'1.60000'
p135
sg14
S'sil'
p136
sg16
S'1.62000'
p137
sg18
g131
sg19
S'1.60000'
p138
sg21
S'1.24000'
p139
sbtp140
a(S'./data/13_pilar.TextGrid'
p141
g4
(g5
g6
Ntp142
Rp143
(dp144
g10
g114
sg12
S'1.66000'
p145
sg14
S'sil'
p146
sg16
S'1.68000'
p147
sg18
g141
sg19
S'1.66000'
p148
sg21
S'1.27000'
p149
sbtp150
a(S'./data/2_pilar.TextGrid'
p151
g4
(g5
g6
Ntp152
Rp153
(dp154
g10
g114
sg12
S'1.87000'
p155
sg14
S'sil'
p156
sg16
S'1.89000'
p157
sg18
g151
sg19
S'1.87000'
p158
sg21
S'1.50000'
p159
sbtp160
a(S'./data/26_pilar.TextGrid'
p161
g4
(g5
g6
Ntp162
Rp163
(dp164
g10
g114
sg12
S'1.67000'
p165
sg14
S'sil'
p166
sg16
S'1.69000'
p167
sg18
g161
sg19
S'1.67000'
p168
sg21
S'1.36000'
p169
sbtp170
a(g58
g4
(g5
g6
Ntp171
Rp172
(dp173
g10
g114
sg12
S'5.15000'
p174
sg14
S'sil'
p175
sg16
S'5.28000'
p176
sg18
g58
sg19
S'5.15000'
p177
sg21
S'5.08000'
p178
sbtp179
a(S'./data/34_pilar.TextGrid'
p180
g4
(g5
g6
Ntp181
Rp182
(dp183
g10
g114
sg12
S'1.43000'
p184
sg14
S'sil'
p185
sg16
S'1.45000'
p186
sg18
g180
sg19
S'1.43000'
p187
sg21
S'1.02000'
p188
sbtp189
a(S'./data/23_pilar.TextGrid'
p190
g4
(g5
g6
Ntp191
Rp192
(dp193
g10
g114
sg12
S'1.96000'
p194
sg14
S'sil'
p195
sg16
S'1.98000'
p196
sg18
g190
sg19
S'1.96000'
p197
sg21
S'1.93000'
p198
sbtp199
a(g3
g4
(g5
g6
Ntp200
Rp201
(dp202
g10
g114
sg12
S'2.12000'
p203
sg14
S'sil'
p204
sg16
S'2.14000'
p205
sg18
g3
sg19
S'2.12000'
p206
sg21
S'1.93000'
p207
sbtp208
a(S'./data/0_pilar.TextGrid'
p209
g4
(g5
g6
Ntp210
Rp211
(dp212
g10
g114
sg12
S'1.85000'
p213
sg14
S'sil'
p214
sg16
S'1.87000'
p215
sg18
g209
sg19
S'1.85000'
p216
sg21
S'1.50000'
p217
sbtp218
a(S'./data/38_pilar.TextGrid'
p219
g4
(g5
g6
Ntp220
Rp221
(dp222
g10
g114
sg12
S'1.96000'
p223
sg14
S'sil'
p224
sg16
S'1.98000'
p225
sg18
g219
sg19
S'1.96000'
p226
sg21
S'1.69000'
p227
sbtp228
a(S'./data/7_pilar.TextGrid'
p229
g4
(g5
g6
Ntp230
Rp231
(dp232
g10
g114
sg12
S'1.74000'
p233
sg14
S'sil'
p234
sg16
S'1.76000'
p235
sg18
g229
sg19
S'1.74000'
p236
sg21
S'1.42000'
p237
sbtp238
asS'a_rA'
p239
(lp240
(g190
g4
(g5
g6
Ntp241
Rp242
(dp243
g10
S'a'
p244
sg12
S'0.65000'
p245
sg14
S'rA'
p246
sg16
S'0.68000'
p247
sg18
g190
sg19
S'0.65000'
p248
sg21
S'0.57000'
p249
sbtp250
asS'p_iSC'
p251
(lp252
(g97
g4
(g5
g6
Ntp253
Rp254
(dp255
g10
g15
sg12
S'0.49000'
p256
sg14
S'iSC'
p257
sg16
S'0.69000'
p258
sg18
g97
sg19
S'0.49000'
p259
sg21
S'0.30000'
p260
sbtp261
asS'e_ll'
p262
(lp263
(g131
g4
(g5
g6
Ntp264
Rp265
(dp266
g10
g11
sg12
S'0.68000'
p267
sg14
S'll'
p268
sg16
S'0.89000'
p269
sg18
g131
sg19
S'0.68000'
p270
sg21
S'0.65000'
p271
sbtp272
asS'uSC_a'
p273
(lp274
(g190
g4
(g5
g6
Ntp275
Rp276
(dp277
g10
S'uSC'
p278
sg12
S'0.57000'
p279
sg14
g244
sg16
S'0.65000'
p280
sg18
g190
sg19
S'0.57000'
p281
sg21
S'0.44000'
p282
sbtp283
asS'o_uS'
p284
(lp285
(S'./data/10_pilar.TextGrid'
p286
g4
(g5
g6
Ntp287
Rp288
(dp289
g10
S'o'
p290
sg12
S'0.72000'
p291
sg14
S'uS'
p292
sg16
S'0.75000'
p293
sg18
g286
sg19
S'0.72000'
p294
sg21
S'0.66000'
p295
sbtp296
asS's_iSC'
p297
(lp298
(g161
g4
(g5
g6
Ntp299
Rp300
(dp301
g10
S's'
p302
sg12
S'1.17000'
p303
sg14
S'iSC'
p304
sg16
S'1.25000'
p305
sg18
g161
sg19
S'1.17000'
p306
sg21
S'1.00000'
p307
sbtp308
asS'e_sil'
p309
(lp310
(S'./data/25_pilar.TextGrid'
p311
g4
(g5
g6
Ntp312
Rp313
(dp314
g10
g11
sg12
S'1.66000'
p315
sg14
S'sil'
p316
sg16
S'1.68000'
p317
sg18
g311
sg19
S'1.66000'
p318
sg21
S'1.63000'
p319
sbtp320
asS'uS_ch'
p321
(lp322
(g161
g4
(g5
g6
Ntp323
Rp324
(dp325
g10
S'uS'
p326
sg12
S'0.25000'
p327
sg14
S'ch'
p328
sg16
S'0.28000'
p329
sg18
g161
sg19
S'0.25000'
p330
sg21
S'0.05000'
p331
sbtp332
asS'o_d'
p333
(lp334
(g58
g4
(g5
g6
Ntp335
Rp336
(dp337
g10
g290
sg12
S'0.72000'
p338
sg14
S'd'
p339
sg16
S'0.75000'
p340
sg18
g58
sg19
S'0.72000'
p341
sg21
S'0.69000'
p342
sbtp343
a(g58
g4
(g5
g6
Ntp344
Rp345
(dp346
g10
g290
sg12
S'0.97000'
p347
sg14
g339
sg16
S'1.00000'
p348
sg18
g58
sg19
S'0.97000'
p349
sg21
S'0.90000'
p350
sbtp351
asS'oS_ch'
p352
(lp353
(S'./data/17_pilar.TextGrid'
p354
g4
(g5
g6
Ntp355
Rp356
(dp357
g10
S'oS'
p358
sg12
S'1.13000'
p359
sg14
S'ch'
p360
sg16
S'1.16000'
p361
sg18
g354
sg19
S'1.13000'
p362
sg21
S'0.98000'
p363
sbtp364
asS'o_eS'
p365
(lp366
(S'./data/5_pilar.TextGrid'
p367
g4
(g5
g6
Ntp368
Rp369
(dp370
g10
g290
sg12
S'1.19000'
p371
sg14
S'eS'
p372
sg16
S'1.31000'
p373
sg18
g367
sg19
S'1.19000'
p374
sg21
S'1.12000'
p375
sbtp376
a(S'./data/31_pilar.TextGrid'
p377
g4
(g5
g6
Ntp378
Rp379
(dp380
g10
g290
sg12
S'0.65000'
p381
sg14
S'eS'
p382
sg16
S'0.75000'
p383
sg18
g377
sg19
S'0.65000'
p384
sg21
S'0.37000'
p385
sbtp386
asS'sp_uS'
p387
(lp388
(S'./data/32_pilar.TextGrid'
p389
g4
(g5
g6
Ntp390
Rp391
(dp392
g10
S'sp'
p393
sg12
S'0.84000'
p394
sg14
S'uS'
p395
sg16
S'0.94000'
p396
sg18
g389
sg19
S'0.84000'
p397
sg21
S'0.79000'
p398
sbtp399
asS'ch_a'
p400
(lp401
(g161
g4
(g5
g6
Ntp402
Rp403
(dp404
g10
S'ch'
p405
sg12
S'0.28000'
p406
sg14
g244
sg16
S'0.54000'
p407
sg18
g161
sg19
S'0.28000'
p408
sg21
S'0.25000'
p409
sbtp410
asS'u_p'
p411
(lp412
(g3
g4
(g5
g6
Ntp413
Rp414
(dp415
g10
g51
sg12
S'1.71000'
p416
sg14
g15
sg16
S'1.79000'
p417
sg18
g3
sg19
S'1.71000'
p418
sg21
S'1.45000'
p419
sbtp420
asS'n_iSC'
p421
(lp422
(g286
g4
(g5
g6
Ntp423
Rp424
(dp425
g10
g53
sg12
S'1.53000'
p426
sg14
S'iSC'
p427
sg16
S'2.06000'
p428
sg18
g286
sg19
S'1.53000'
p429
sg21
S'1.50000'
p430
sbtp431
a(S'./data/20_pilar.TextGrid'
p432
g4
(g5
g6
Ntp433
Rp434
(dp435
g10
g53
sg12
S'1.21000'
p436
sg14
S'iSC'
p437
sg16
S'1.76000'
p438
sg18
g432
sg19
S'1.21000'
p439
sg21
S'1.17000'
p440
sbtp441
asS'g_uS'
p442
(lp443
(S'./data/14_pilar.TextGrid'
p444
g4
(g5
g6
Ntp445
Rp446
(dp447
g10
S'g'
p448
sg12
S'0.11000'
p449
sg14
S'uS'
p450
sg16
S'0.49000'
p451
sg18
g444
sg19
S'0.11000'
p452
sg21
S'0.08000'
p453
sbtp454
a(S'./data/35_pilar.TextGrid'
p455
g4
(g5
g6
Ntp456
Rp457
(dp458
g10
g448
sg12
S'1.08000'
p459
sg14
S'uS'
p460
sg16
S'1.11000'
p461
sg18
g455
sg19
S'1.08000'
p462
sg21
S'0.47000'
p463
sbtp464
a(S'./data/29_pilar.TextGrid'
p465
g4
(g5
g6
Ntp466
Rp467
(dp468
g10
g448
sg12
S'0.34000'
p469
sg14
S'uS'
p470
sg16
S'0.58000'
p471
sg18
g465
sg19
S'0.34000'
p472
sg21
S'0.23000'
p473
sbtp474
a(g219
g4
(g5
g6
Ntp475
Rp476
(dp477
g10
g448
sg12
S'0.18000'
p478
sg14
S'uS'
p479
sg16
S'0.39000'
p480
sg18
g219
sg19
S'0.18000'
p481
sg21
S'0.15000'
p482
sbtp483
asS'n_f'
p484
(lp485
(g444
g4
(g5
g6
Ntp486
Rp487
(dp488
g10
g53
sg12
S'1.55000'
p489
sg14
S'f'
p490
sg16
S'1.58000'
p491
sg18
g444
sg19
S'1.55000'
p492
sg21
S'1.51000'
p493
sbtp494
asS'ch_o'
p495
(lp496
(g58
g4
(g5
g6
Ntp497
Rp498
(dp499
g10
S'ch'
p500
sg12
S'3.81000'
p501
sg14
g290
sg16
S'3.84000'
p502
sg18
g58
sg19
S'3.81000'
p503
sg21
S'3.71000'
p504
sbtp505
asS'sil_d'
p506
(lp507
(g151
g4
(g5
g6
Ntp508
Rp509
(dp510
g10
S'sil'
p511
sg12
S'0.03000'
p512
sg14
g339
sg16
S'0.76000'
p513
sg18
g151
sg19
S'0.03000'
p514
sg21
S'0.00000'
p515
sbtp516
asS'dA_a'
p517
(lp518
(S'./data/8_pilar.TextGrid'
p519
g4
(g5
g6
Ntp520
Rp521
(dp522
g10
S'dA'
p523
sg12
S'1.68000'
p524
sg14
g244
sg16
S'1.88000'
p525
sg18
g519
sg19
S'1.68000'
p526
sg21
S'1.39000'
p527
sbtp528
a(g229
g4
(g5
g6
Ntp529
Rp530
(dp531
g10
S'dA'
p532
sg12
S'0.41000'
p533
sg14
g244
sg16
S'0.69000'
p534
sg18
g229
sg19
S'0.41000'
p535
sg21
S'0.22000'
p536
sbtp537
asS'a_s'
p538
(lp539
(S'./data/18_pilar.TextGrid'
p540
g4
(g5
g6
Ntp541
Rp542
(dp543
g10
g244
sg12
S'1.11000'
p544
sg14
g302
sg16
S'1.31000'
p545
sg18
g540
sg19
S'1.11000'
p546
sg21
S'0.88000'
p547
sbtp548
a(g519
g4
(g5
g6
Ntp549
Rp550
(dp551
g10
g244
sg12
S'0.22000'
p552
sg14
g302
sg16
S'0.43000'
p553
sg18
g519
sg19
S'0.22000'
p554
sg21
S'0.02000'
p555
sbtp556
a(g97
g4
(g5
g6
Ntp557
Rp558
(dp559
g10
g244
sg12
S'1.25000'
p560
sg14
g302
sg16
S'1.46000'
p561
sg18
g97
sg19
S'1.25000'
p562
sg21
S'1.07000'
p563
sbtp564
asS'a_r'
p565
(lp566
(S'./data/27_pilar.TextGrid'
p567
g4
(g5
g6
Ntp568
Rp569
(dp570
g10
g244
sg12
S'1.46000'
p571
sg14
S'r'
p572
sg16
S'1.49000'
p573
sg18
g567
sg19
S'1.46000'
p574
sg21
S'1.10000'
p575
sbtp576
asS'e_r'
p577
(lp578
(g465
g4
(g5
g6
Ntp579
Rp580
(dp581
g10
g11
sg12
S'1.49000'
p582
sg14
g572
sg16
S'1.53000'
p583
sg18
g465
sg19
S'1.49000'
p584
sg21
S'1.33000'
p585
sbtp586
asS'r_o'
p587
(lp588
(g455
g4
(g5
g6
Ntp589
Rp590
(dp591
g10
g572
sg12
S'1.31000'
p592
sg14
g290
sg16
S'1.36000'
p593
sg18
g455
sg19
S'1.31000'
p594
sg21
S'1.28000'
p595
sbtp596
a(g58
g4
(g5
g6
Ntp597
Rp598
(dp599
g10
g572
sg12
S'0.69000'
p600
sg14
g290
sg16
S'0.72000'
p601
sg18
g58
sg19
S'0.69000'
p602
sg21
S'0.66000'
p603
sbtp604
asS'm_i'
p605
(lp606
(g432
g4
(g5
g6
Ntp607
Rp608
(dp609
g10
S'm'
p610
sg12
S'0.87000'
p611
sg14
S'i'
p612
sg16
S'0.90000'
p613
sg18
g432
sg19
S'0.87000'
p614
sg21
S'0.84000'
p615
sbtp616
asS'h_d'
p617
(lp618
(g209
g4
(g5
g6
Ntp619
Rp620
(dp621
g10
g114
sg12
S'0.80000'
p622
sg14
g339
sg16
S'1.21000'
p623
sg18
g209
sg19
S'0.80000'
p624
sg21
S'0.72000'
p625
sbtp626
asS'ny_aS'
p627
(lp628
(S'./data/36_pilar.TextGrid'
p629
g4
(g5
g6
Ntp630
Rp631
(dp632
g10
S'ny'
p633
sg12
S'0.77000'
p634
sg14
S'aS'
p635
sg16
S'0.85000'
p636
sg18
g629
sg19
S'0.77000'
p637
sg21
S'0.56000'
p638
sbtp639
asS'eS_iSV'
p640
(lp641
(S'./data/33_pilar.TextGrid'
p642
g4
(g5
g6
Ntp643
Rp644
(dp645
g10
S'eS'
p646
sg12
S'0.61000'
p647
sg14
S'iSV'
p648
sg16
S'0.64000'
p649
sg18
g642
sg19
S'0.61000'
p650
sg21
S'0.55000'
p651
sbtp652
a(S'./data/24_pilar.TextGrid'
p653
g4
(g5
g6
Ntp654
Rp655
(dp656
g10
S'eS'
p657
sg12
S'0.98000'
p658
sg14
S'iSV'
p659
sg16
S'1.01000'
p660
sg18
g653
sg19
S'0.98000'
p661
sg21
S'0.88000'
p662
sbtp663
asS'a_e'
p664
(lp665
(g432
g4
(g5
g6
Ntp666
Rp667
(dp668
g10
g244
sg12
S'0.52000'
p669
sg14
g11
sg16
S'0.70000'
p670
sg18
g432
sg19
S'0.52000'
p671
sg21
S'0.34000'
p672
sbtp673
a(g58
g4
(g5
g6
Ntp674
Rp675
(dp676
g10
g244
sg12
S'3.03000'
p677
sg14
g11
sg16
S'3.06000'
p678
sg18
g58
sg19
S'3.03000'
p679
sg21
S'3.00000'
p680
sbtp681
asS'l_e'
p682
(lp683
(g75
g4
(g5
g6
Ntp684
Rp685
(dp686
g10
S'l'
p687
sg12
S'0.59000'
p688
sg14
g11
sg16
S'0.69000'
p689
sg18
g75
sg19
S'0.59000'
p690
sg21
S'0.56000'
p691
sbtp692
asS'dA_iSC'
p693
(lp694
(g110
g4
(g5
g6
Ntp695
Rp696
(dp697
g10
S'dA'
p698
sg12
S'0.30000'
p699
sg14
S'iSC'
p700
sg16
S'0.65000'
p701
sg18
g110
sg19
S'0.30000'
p702
sg21
S'0.24000'
p703
sbtp704
a(g367
g4
(g5
g6
Ntp705
Rp706
(dp707
g10
S'dA'
p708
sg12
S'1.80000'
p709
sg14
S'iSC'
p710
sg16
S'2.03000'
p711
sg18
g367
sg19
S'1.80000'
p712
sg21
S'1.64000'
p713
sbtp714
a(g219
g4
(g5
g6
Ntp715
Rp716
(dp717
g10
S'dA'
p718
sg12
S'1.14000'
p719
sg14
S'iSC'
p720
sg16
S'1.44000'
p721
sg18
g219
sg19
S'1.14000'
p722
sg21
S'1.10000'
p723
sbtp724
asS'rA_eS'
p725
(lp726
(g190
g4
(g5
g6
Ntp727
Rp728
(dp729
g10
S'rA'
p730
sg12
S'0.68000'
p731
sg14
S'eS'
p732
sg16
S'0.78000'
p733
sg18
g190
sg19
S'0.68000'
p734
sg21
S'0.65000'
p735
sbtp736
asS'a_o'
p737
(lp738
(g286
g4
(g5
g6
Ntp739
Rp740
(dp741
g10
g244
sg12
S'0.85000'
p742
sg14
g290
sg16
S'0.95000'
p743
sg18
g286
sg19
S'0.85000'
p744
sg21
S'0.82000'
p745
sbtp746
asS'a_n'
p747
(lp748
(g86
g4
(g5
g6
Ntp749
Rp750
(dp751
g10
g244
sg12
S'1.07000'
p752
sg14
g53
sg16
S'1.20000'
p753
sg18
g86
sg19
S'1.07000'
p754
sg21
S'1.00000'
p755
sbtp756
a(g219
g4
(g5
g6
Ntp757
Rp758
(dp759
g10
g244
sg12
S'0.67000'
p760
sg14
g53
sg16
S'0.70000'
p761
sg18
g219
sg19
S'0.67000'
p762
sg21
S'0.60000'
p763
sbtp764
asS'a_m'
p765
(lp766
(g389
g4
(g5
g6
Ntp767
Rp768
(dp769
g10
g244
sg12
S'1.12000'
p770
sg14
g610
sg16
S'1.26000'
p771
sg18
g389
sg19
S'1.12000'
p772
sg21
S'1.05000'
p773
sbtp774
a(g629
g4
(g5
g6
Ntp775
Rp776
(dp777
g10
g244
sg12
S'0.44000'
p778
sg14
g610
sg16
S'0.53000'
p779
sg18
g629
sg19
S'0.44000'
p780
sg21
S'0.39000'
p781
sbtp782
a(g311
g4
(g5
g6
Ntp783
Rp784
(dp785
g10
g244
sg12
S'0.47000'
p786
sg14
g610
sg16
S'0.63000'
p787
sg18
g311
sg19
S'0.47000'
p788
sg21
S'0.41000'
p789
sbtp790
asS'a_l'
p791
(lp792
(g444
g4
(g5
g6
Ntp793
Rp794
(dp795
g10
g244
sg12
S'0.80000'
p796
sg14
g687
sg16
S'0.92000'
p797
sg18
g444
sg19
S'0.80000'
p798
sg21
S'0.70000'
p799
sbtp800
asS's_k'
p801
(lp802
(g367
g4
(g5
g6
Ntp803
Rp804
(dp805
g10
g302
sg12
S'1.09000'
p806
sg14
S'k'
p807
sg16
S'1.12000'
p808
sg18
g367
sg19
S'1.09000'
p809
sg21
S'0.69000'
p810
sbtp811
asS'a_i'
p812
(lp813
(g444
g4
(g5
g6
Ntp814
Rp815
(dp816
g10
g244
sg12
S'1.08000'
p817
sg14
g612
sg16
S'1.51000'
p818
sg18
g444
sg19
S'1.08000'
p819
sg21
S'0.92000'
p820
sbtp821
asS'a_h'
p822
(lp823
(g110
g4
(g5
g6
Ntp824
Rp825
(dp826
g10
g244
sg12
S'0.90000'
p827
sg14
g114
sg16
S'1.09000'
p828
sg18
g110
sg19
S'0.90000'
p829
sg21
S'0.80000'
p830
sbtp831
a(g110
g4
(g5
g6
Ntp832
Rp833
(dp834
g10
g244
sg12
S'1.61000'
p835
sg14
g114
sg16
S'1.94000'
p836
sg18
g110
sg19
S'1.61000'
p837
sg21
S'1.47000'
p838
sbtp839
a(g354
g4
(g5
g6
Ntp840
Rp841
(dp842
g10
g244
sg12
S'0.49000'
p843
sg14
g114
sg16
S'0.67000'
p844
sg18
g354
sg19
S'0.49000'
p845
sg21
S'0.34000'
p846
sbtp847
a(g131
g4
(g5
g6
Ntp848
Rp849
(dp850
g10
g244
sg12
S'1.24000'
p851
sg14
g114
sg16
S'1.60000'
p852
sg18
g131
sg19
S'1.24000'
p853
sg21
S'1.12000'
p854
sbtp855
a(g141
g4
(g5
g6
Ntp856
Rp857
(dp858
g10
g244
sg12
S'0.51000'
p859
sg14
g114
sg16
S'0.67000'
p860
sg18
g141
sg19
S'0.51000'
p861
sg21
S'0.35000'
p862
sbtp863
a(g161
g4
(g5
g6
Ntp864
Rp865
(dp866
g10
g244
sg12
S'0.54000'
p867
sg14
g114
sg16
S'0.69000'
p868
sg18
g161
sg19
S'0.54000'
p869
sg21
S'0.28000'
p870
sbtp871
a(g161
g4
(g5
g6
Ntp872
Rp873
(dp874
g10
g244
sg12
S'1.36000'
p875
sg14
g114
sg16
S'1.67000'
p876
sg18
g161
sg19
S'1.36000'
p877
sg21
S'1.25000'
p878
sbtp879
a(g209
g4
(g5
g6
Ntp880
Rp881
(dp882
g10
g244
sg12
S'1.50000'
p883
sg14
g114
sg16
S'1.85000'
p884
sg18
g209
sg19
S'1.50000'
p885
sg21
S'1.30000'
p886
sbtp887
a(g219
g4
(g5
g6
Ntp888
Rp889
(dp890
g10
g244
sg12
S'1.69000'
p891
sg14
g114
sg16
S'1.96000'
p892
sg18
g219
sg19
S'1.69000'
p893
sg21
S'1.62000'
p894
sbtp895
asS'oS_k'
p896
(lp897
(g47
g4
(g5
g6
Ntp898
Rp899
(dp900
g10
S'oS'
p901
sg12
S'1.29000'
p902
sg14
g807
sg16
S'1.32000'
p903
sg18
g47
sg19
S'1.29000'
p904
sg21
S'1.12000'
p905
sbtp906
a(g58
g4
(g5
g6
Ntp907
Rp908
(dp909
g10
S'oS'
p910
sg12
S'2.56000'
p911
sg14
g807
sg16
S'2.64000'
p912
sg18
g58
sg19
S'2.56000'
p913
sg21
S'2.53000'
p914
sbtp915
asS'sil_e'
p916
(lp917
(g286
g4
(g5
g6
Ntp918
Rp919
(dp920
g10
S'sil'
p921
sg12
S'0.12000'
p922
sg14
g11
sg16
S'0.23000'
p923
sg18
g286
sg19
S'0.12000'
p924
sg21
S'0.00000'
p925
sbtp926
asS'oS_i'
p927
(lp928
(g47
g4
(g5
g6
Ntp929
Rp930
(dp931
g10
S'oS'
p932
sg12
S'0.61000'
p933
sg14
g612
sg16
S'0.69000'
p934
sg18
g47
sg19
S'0.61000'
p935
sg21
S'0.54000'
p936
sbtp937
a(g540
g4
(g5
g6
Ntp938
Rp939
(dp940
g10
S'oS'
p941
sg12
S'0.68000'
p942
sg14
g612
sg16
S'0.85000'
p943
sg18
g540
sg19
S'0.68000'
p944
sg21
S'0.62000'
p945
sbtp946
a(S'./data/12_pilar.TextGrid'
p947
g4
(g5
g6
Ntp948
Rp949
(dp950
g10
S'oS'
p951
sg12
S'0.29000'
p952
sg14
g612
sg16
S'0.61000'
p953
sg18
g947
sg19
S'0.29000'
p954
sg21
S'0.21000'
p955
sbtp956
a(g389
g4
(g5
g6
Ntp957
Rp958
(dp959
g10
S'oS'
p960
sg12
S'0.52000'
p961
sg14
g612
sg16
S'0.79000'
p962
sg18
g389
sg19
S'0.52000'
p963
sg21
S'0.45000'
p964
sbtp965
asS'oS_h'
p966
(lp967
(g58
g4
(g5
g6
Ntp968
Rp969
(dp970
g10
S'oS'
p971
sg12
S'0.48000'
p972
sg14
g114
sg16
S'0.55000'
p973
sg18
g58
sg19
S'0.48000'
p974
sg21
S'0.45000'
p975
sbtp976
asS'm_o'
p977
(lp978
(g131
g4
(g5
g6
Ntp979
Rp980
(dp981
g10
g610
sg12
S'0.42000'
p982
sg14
g290
sg16
S'0.49000'
p983
sg18
g131
sg19
S'0.42000'
p984
sg21
S'0.13000'
p985
sbtp986
a(g567
g4
(g5
g6
Ntp987
Rp988
(dp989
g10
g610
sg12
S'0.73000'
p990
sg14
g290
sg16
S'0.86000'
p991
sg18
g567
sg19
S'0.73000'
p992
sg21
S'0.51000'
p993
sbtp994
a(g180
g4
(g5
g6
Ntp995
Rp996
(dp997
g10
g610
sg12
S'0.37000'
p998
sg14
g290
sg16
S'0.51000'
p999
sg18
g180
sg19
S'0.37000'
p1000
sg21
S'0.31000'
p1001
sbtp1002
a(S'./data/30_pilar.TextGrid'
p1003
g4
(g5
g6
Ntp1004
Rp1005
(dp1006
g10
g610
sg12
S'0.86000'
p1007
sg14
g290
sg16
S'1.21000'
p1008
sg18
g1003
sg19
S'0.86000'
p1009
sg21
S'0.64000'
p1010
sbtp1011
asS'oS_m'
p1012
(lp1013
(g131
g4
(g5
g6
Ntp1014
Rp1015
(dp1016
g10
S'oS'
p1017
sg12
S'0.13000'
p1018
sg14
g610
sg16
S'0.42000'
p1019
sg18
g131
sg19
S'0.13000'
p1020
sg21
S'0.05000'
p1021
sbtp1022
a(g367
g4
(g5
g6
Ntp1023
Rp1024
(dp1025
g10
S'oS'
p1026
sg12
S'2.06000'
p1027
sg14
g610
sg16
S'2.22000'
p1028
sg18
g367
sg19
S'2.06000'
p1029
sg21
S'2.03000'
p1030
sbtp1031
a(g58
g4
(g5
g6
Ntp1032
Rp1033
(dp1034
g10
S'oS'
p1035
sg12
S'2.86000'
p1036
sg14
g610
sg16
S'2.89000'
p1037
sg18
g58
sg19
S'2.86000'
p1038
sg21
S'2.83000'
p1039
sbtp1040
a(g180
g4
(g5
g6
Ntp1041
Rp1042
(dp1043
g10
S'oS'
p1044
sg12
S'0.31000'
p1045
sg14
g610
sg16
S'0.37000'
p1046
sg18
g180
sg19
S'0.31000'
p1047
sg21
S'0.28000'
p1048
sbtp1049
a(g75
g4
(g5
g6
Ntp1050
Rp1051
(dp1052
g10
S'oS'
p1053
sg12
S'1.15000'
p1054
sg14
g610
sg16
S'1.42000'
p1055
sg18
g75
sg19
S'1.15000'
p1056
sg21
S'1.12000'
p1057
sbtp1058
asS'sil_b'
p1059
(lp1060
(g354
g4
(g5
g6
Ntp1061
Rp1062
(dp1063
g10
S'sil'
p1064
sg12
S'0.02000'
p1065
sg14
g38
sg16
S'0.20000'
p1066
sg18
g354
sg19
S'0.02000'
p1067
sg21
S'0.00000'
p1068
sbtp1069
a(g141
g4
(g5
g6
Ntp1070
Rp1071
(dp1072
g10
S'sil'
p1073
sg12
S'0.02000'
p1074
sg14
g38
sg16
S'0.23000'
p1075
sg18
g141
sg19
S'0.02000'
p1076
sg21
S'0.00000'
p1077
sbtp1078
a(g58
g4
(g5
g6
Ntp1079
Rp1080
(dp1081
g10
S'sil'
p1082
sg12
S'0.06000'
p1083
sg14
g38
sg16
S'0.10000'
p1084
sg18
g58
sg19
S'0.06000'
p1085
sg21
S'0.00000'
p1086
sbtp1087
a(g209
g4
(g5
g6
Ntp1088
Rp1089
(dp1090
g10
S'sil'
p1091
sg12
S'0.02000'
p1092
sg14
g38
sg16
S'0.11000'
p1093
sg18
g209
sg19
S'0.02000'
p1094
sg21
S'0.00000'
p1095
sbtp1096
asS'oS_l'
p1097
(lp1098
(g286
g4
(g5
g6
Ntp1099
Rp1100
(dp1101
g10
S'oS'
p1102
sg12
S'0.63000'
p1103
sg14
g687
sg16
S'0.66000'
p1104
sg18
g286
sg19
S'0.63000'
p1105
sg21
S'0.56000'
p1106
sbtp1107
asS'a_aS'
p1108
(lp1109
(g642
g4
(g5
g6
Ntp1110
Rp1111
(dp1112
g10
g244
sg12
S'1.12000'
p1113
sg14
S'aS'
p1114
sg16
S'1.24000'
p1115
sg18
g642
sg19
S'1.12000'
p1116
sg21
S'0.88000'
p1117
sbtp1118
a(g465
g4
(g5
g6
Ntp1119
Rp1120
(dp1121
g10
g244
sg12
S'0.94000'
p1122
sg14
S'aS'
p1123
sg16
S'1.10000'
p1124
sg18
g465
sg19
S'0.94000'
p1125
sg21
S'0.78000'
p1126
sbtp1127
a(g190
g4
(g5
g6
Ntp1128
Rp1129
(dp1130
g10
g244
sg12
S'1.16000'
p1131
sg14
S'aS'
p1132
sg16
S'1.28000'
p1133
sg18
g190
sg19
S'1.16000'
p1134
sg21
S'0.99000'
p1135
sbtp1136
asS'sil_m'
p1137
(lp1138
(g444
g4
(g5
g6
Ntp1139
Rp1140
(dp1141
g10
S'sil'
p1142
sg12
S'0.02000'
p1143
sg14
g610
sg16
S'0.05000'
p1144
sg18
g444
sg19
S'0.02000'
p1145
sg21
S'0.00000'
p1146
sbtp1147
a(g567
g4
(g5
g6
Ntp1148
Rp1149
(dp1150
g10
S'sil'
p1151
sg12
S'0.11000'
p1152
sg14
g610
sg16
S'0.14000'
p1153
sg18
g567
sg19
S'0.11000'
p1154
sg21
S'0.00000'
p1155
sbtp1156
a(g161
g4
(g5
g6
Ntp1157
Rp1158
(dp1159
g10
S'sil'
p1160
sg12
S'0.02000'
p1161
sg14
g610
sg16
S'0.05000'
p1162
sg18
g161
sg19
S'0.02000'
p1163
sg21
S'0.00000'
p1164
sbtp1165
a(g219
g4
(g5
g6
Ntp1166
Rp1167
(dp1168
g10
S'sil'
p1169
sg12
S'0.09000'
p1170
sg14
g610
sg16
S'0.12000'
p1171
sg18
g219
sg19
S'0.09000'
p1172
sg21
S'0.00000'
p1173
sbtp1174
asS'm_a'
p1175
(lp1176
(g110
g4
(g5
g6
Ntp1177
Rp1178
(dp1179
g10
g610
sg12
S'0.80000'
p1180
sg14
g244
sg16
S'0.90000'
p1181
sg18
g110
sg19
S'0.80000'
p1182
sg21
S'0.68000'
p1183
sbtp1184
a(g131
g4
(g5
g6
Ntp1185
Rp1186
(dp1187
g10
g610
sg12
S'1.12000'
p1188
sg14
g244
sg16
S'1.24000'
p1189
sg18
g131
sg19
S'1.12000'
p1190
sg21
S'0.98000'
p1191
sbtp1192
a(g455
g4
(g5
g6
Ntp1193
Rp1194
(dp1195
g10
g610
sg12
S'1.76000'
p1196
sg14
g244
sg16
S'1.93000'
p1197
sg18
g455
sg19
S'1.76000'
p1198
sg21
S'1.61000'
p1199
sbtp1200
a(g367
g4
(g5
g6
Ntp1201
Rp1202
(dp1203
g10
g610
sg12
S'2.22000'
p1204
sg14
g244
sg16
S'2.28000'
p1205
sg18
g367
sg19
S'2.22000'
p1206
sg21
S'2.06000'
p1207
sbtp1208
a(g629
g4
(g5
g6
Ntp1209
Rp1210
(dp1211
g10
g610
sg12
S'0.53000'
p1212
sg14
g244
sg16
S'0.56000'
p1213
sg18
g629
sg19
S'0.53000'
p1214
sg21
S'0.44000'
p1215
sbtp1216
a(g219
g4
(g5
g6
Ntp1217
Rp1218
(dp1219
g10
g610
sg12
S'1.62000'
p1220
sg14
g244
sg16
S'1.69000'
p1221
sg18
g219
sg19
S'1.62000'
p1222
sg21
S'1.47000'
p1223
sbtp1224
asS's_i'
p1225
(lp1226
(g58
g4
(g5
g6
Ntp1227
Rp1228
(dp1229
g10
g302
sg12
S'1.86000'
p1230
sg14
g612
sg16
S'1.96000'
p1231
sg18
g58
sg19
S'1.86000'
p1232
sg21
S'1.83000'
p1233
sbtp1234
asS'd_t'
p1235
(lp1236
(g229
g4
(g5
g6
Ntp1237
Rp1238
(dp1239
g10
g339
sg12
S'0.72000'
p1240
sg14
S't'
p1241
sg16
S'0.94000'
p1242
sg18
g229
sg19
S'0.72000'
p1243
sg21
S'0.69000'
p1244
sbtp1245
asS'eS_iS'
p1246
(lp1247
(g110
g4
(g5
g6
Ntp1248
Rp1249
(dp1250
g10
S'eS'
p1251
sg12
S'0.21000'
p1252
sg14
S'iS'
p1253
sg16
S'0.24000'
p1254
sg18
g110
sg19
S'0.21000'
p1255
sg21
S'0.18000'
p1256
sbtp1257
asS'sil_k'
p1258
(lp1259
(g110
g4
(g5
g6
Ntp1260
Rp1261
(dp1262
g10
S'sil'
p1263
sg12
S'0.15000'
p1264
sg14
g807
sg16
S'0.18000'
p1265
sg18
g110
sg19
S'0.15000'
p1266
sg21
S'0.00000'
p1267
sbtp1268
a(g131
g4
(g5
g6
Ntp1269
Rp1270
(dp1271
g10
S'sil'
p1272
sg12
S'0.02000'
p1273
sg14
g807
sg16
S'0.05000'
p1274
sg18
g131
sg19
S'0.02000'
p1275
sg21
S'0.00000'
p1276
sbtp1277
a(g465
g4
(g5
g6
Ntp1278
Rp1279
(dp1280
g10
S'sil'
p1281
sg12
S'0.11000'
p1282
sg14
g807
sg16
S'0.14000'
p1283
sg18
g465
sg19
S'0.11000'
p1284
sg21
S'0.00000'
p1285
sbtp1286
a(g34
g4
(g5
g6
Ntp1287
Rp1288
(dp1289
g10
S'sil'
p1290
sg12
S'0.13000'
p1291
sg14
g807
sg16
S'0.16000'
p1292
sg18
g34
sg19
S'0.13000'
p1293
sg21
S'0.00000'
p1294
sbtp1295
a(g180
g4
(g5
g6
Ntp1296
Rp1297
(dp1298
g10
S'sil'
p1299
sg12
S'0.25000'
p1300
sg14
g807
sg16
S'0.28000'
p1301
sg18
g180
sg19
S'0.25000'
p1302
sg21
S'0.00000'
p1303
sbtp1304
a(g75
g4
(g5
g6
Ntp1305
Rp1306
(dp1307
g10
S'sil'
p1308
sg12
S'0.37000'
p1309
sg14
g807
sg16
S'0.45000'
p1310
sg18
g75
sg19
S'0.37000'
p1311
sg21
S'0.00000'
p1312
sbtp1313
a(g229
g4
(g5
g6
Ntp1314
Rp1315
(dp1316
g10
S'sil'
p1317
sg12
S'0.13000'
p1318
sg14
g807
sg16
S'0.16000'
p1319
sg18
g229
sg19
S'0.13000'
p1320
sg21
S'0.00000'
p1321
sbtp1322
asS'sil_t'
p1323
(lp1324
(S'./data/28_pilar.TextGrid'
p1325
g4
(g5
g6
Ntp1326
Rp1327
(dp1328
g10
S'sil'
p1329
sg12
S'0.08000'
p1330
sg14
g1241
sg16
S'0.11000'
p1331
sg18
g1325
sg19
S'0.08000'
p1332
sg21
S'0.00000'
p1333
sbtp1334
a(g642
g4
(g5
g6
Ntp1335
Rp1336
(dp1337
g10
S'sil'
p1338
sg12
S'0.02000'
p1339
sg14
g1241
sg16
S'0.08000'
p1340
sg18
g642
sg19
S'0.02000'
p1341
sg21
S'0.00000'
p1342
sbtp1343
a(g190
g4
(g5
g6
Ntp1344
Rp1345
(dp1346
g10
S'sil'
p1347
sg12
S'0.08000'
p1348
sg14
g1241
sg16
S'0.11000'
p1349
sg18
g190
sg19
S'0.08000'
p1350
sg21
S'0.00000'
p1351
sbtp1352
a(g653
g4
(g5
g6
Ntp1353
Rp1354
(dp1355
g10
S'sil'
p1356
sg12
S'0.02000'
p1357
sg14
g1241
sg16
S'0.08000'
p1358
sg18
g653
sg19
S'0.02000'
p1359
sg21
S'0.00000'
p1360
sbtp1361
asS'eS_m'
p1362
(lp1363
(g455
g4
(g5
g6
Ntp1364
Rp1365
(dp1366
g10
S'eS'
p1367
sg12
S'1.61000'
p1368
sg14
g610
sg16
S'1.76000'
p1369
sg18
g455
sg19
S'1.61000'
p1370
sg21
S'1.51000'
p1371
sbtp1372
a(g1003
g4
(g5
g6
Ntp1373
Rp1374
(dp1375
g10
S'eS'
p1376
sg12
S'0.64000'
p1377
sg14
g610
sg16
S'0.86000'
p1378
sg18
g1003
sg19
S'0.64000'
p1379
sg21
S'0.52000'
p1380
sbtp1381
asS'a_d'
p1382
(lp1383
(g229
g4
(g5
g6
Ntp1384
Rp1385
(dp1386
g10
g244
sg12
S'0.69000'
p1387
sg14
g339
sg16
S'0.72000'
p1388
sg18
g229
sg19
S'0.69000'
p1389
sg21
S'0.41000'
p1390
sbtp1391
asS'e_g'
p1392
(lp1393
(g444
g4
(g5
g6
Ntp1394
Rp1395
(dp1396
g10
g11
sg12
S'0.08000'
p1397
sg14
g448
sg16
S'0.11000'
p1398
sg18
g444
sg19
S'0.08000'
p1399
sg21
S'0.05000'
p1400
sbtp1401
a(g465
g4
(g5
g6
Ntp1402
Rp1403
(dp1404
g10
g11
sg12
S'0.23000'
p1405
sg14
g448
sg16
S'0.34000'
p1406
sg18
g465
sg19
S'0.23000'
p1407
sg21
S'0.20000'
p1408
sbtp1409
a(g219
g4
(g5
g6
Ntp1410
Rp1411
(dp1412
g10
g11
sg12
S'0.15000'
p1413
sg14
g448
sg16
S'0.18000'
p1414
sg18
g219
sg19
S'0.15000'
p1415
sg21
S'0.12000'
p1416
sbtp1417
asS'aS_ny'
p1418
(lp1419
(g642
g4
(g5
g6
Ntp1420
Rp1421
(dp1422
g10
S'aS'
p1423
sg12
S'1.24000'
p1424
sg14
S'ny'
p1425
sg16
S'1.80000'
p1426
sg18
g642
sg19
S'1.24000'
p1427
sg21
S'1.12000'
p1428
sbtp1429
a(g190
g4
(g5
g6
Ntp1430
Rp1431
(dp1432
g10
S'aS'
p1433
sg12
S'1.28000'
p1434
sg14
S'ny'
p1435
sg16
S'1.89000'
p1436
sg18
g190
sg19
S'1.28000'
p1437
sg21
S'1.16000'
p1438
sbtp1439
a(g653
g4
(g5
g6
Ntp1440
Rp1441
(dp1442
g10
S'aS'
p1443
sg12
S'1.21000'
p1444
sg14
S'ny'
p1445
sg16
S'1.79000'
p1446
sg18
g653
sg19
S'1.21000'
p1447
sg21
S'1.13000'
p1448
sbtp1449
asS'e_e'
p1450
(lp1451
(S'./data/9_pilar.TextGrid'
p1452
g4
(g5
g6
Ntp1453
Rp1454
(dp1455
g10
g11
sg12
S'0.67000'
p1456
sg14
g11
sg16
S'0.86000'
p1457
sg18
g1452
sg19
S'0.67000'
p1458
sg21
S'0.53000'
p1459
sbtp1460
asS'sil_s'
p1461
(lp1462
(g947
g4
(g5
g6
Ntp1463
Rp1464
(dp1465
g10
S'sil'
p1466
sg12
S'0.10000'
p1467
sg14
g302
sg16
S'0.21000'
p1468
sg18
g947
sg19
S'0.10000'
p1469
sg21
S'0.00000'
p1470
sbtp1471
asS'e_k'
p1472
(lp1473
(S'./data/4_pilar.TextGrid'
p1474
g4
(g5
g6
Ntp1475
Rp1476
(dp1477
g10
g11
sg12
S'1.44000'
p1478
sg14
g807
sg16
S'1.49000'
p1479
sg18
g1474
sg19
S'1.44000'
p1480
sg21
S'1.39000'
p1481
sbtp1482
asS'sil_eS'
p1483
(lp1484
(g432
g4
(g5
g6
Ntp1485
Rp1486
(dp1487
g10
S'sil'
p1488
sg12
S'0.12000'
p1489
sg14
S'eS'
p1490
sg16
S'0.17000'
p1491
sg18
g432
sg19
S'0.12000'
p1492
sg21
S'0.00000'
p1493
sbtp1494
asS'e_i'
p1495
(lp1496
(g367
g4
(g5
g6
Ntp1497
Rp1498
(dp1499
g10
g11
sg12
S'1.56000'
p1500
sg14
g612
sg16
S'1.64000'
p1501
sg18
g367
sg19
S'1.56000'
p1502
sg21
S'1.50000'
p1503
sbtp1504
asS'e_h'
p1505
(lp1506
(g540
g4
(g5
g6
Ntp1507
Rp1508
(dp1509
g10
g11
sg12
S'0.46000'
p1510
sg14
g114
sg16
S'0.57000'
p1511
sg18
g540
sg19
S'0.46000'
p1512
sg21
S'0.36000'
p1513
sbtp1514
a(g286
g4
(g5
g6
Ntp1515
Rp1516
(dp1517
g10
g11
sg12
S'0.23000'
p1518
sg14
g114
sg16
S'0.40000'
p1519
sg18
g286
sg19
S'0.23000'
p1520
sg21
S'0.12000'
p1521
sbtp1522
a(g354
g4
(g5
g6
Ntp1523
Rp1524
(dp1525
g10
g11
sg12
S'1.27000'
p1526
sg14
g114
sg16
S'1.59000'
p1527
sg18
g354
sg19
S'1.27000'
p1528
sg21
S'1.16000'
p1529
sbtp1530
a(g141
g4
(g5
g6
Ntp1531
Rp1532
(dp1533
g10
g11
sg12
S'1.27000'
p1534
sg14
g114
sg16
S'1.66000'
p1535
sg18
g141
sg19
S'1.27000'
p1536
sg21
S'1.12000'
p1537
sbtp1538
a(g432
g4
(g5
g6
Ntp1539
Rp1540
(dp1541
g10
g11
sg12
S'0.70000'
p1542
sg14
g114
sg16
S'0.78000'
p1543
sg18
g432
sg19
S'0.70000'
p1544
sg21
S'0.52000'
p1545
sbtp1546
a(g1325
g4
(g5
g6
Ntp1547
Rp1548
(dp1549
g10
g11
sg12
S'0.72000'
p1550
sg14
g114
sg16
S'0.93000'
p1551
sg18
g1325
sg19
S'0.72000'
p1552
sg21
S'0.57000'
p1553
sbtp1554
a(g151
g4
(g5
g6
Ntp1555
Rp1556
(dp1557
g10
g11
sg12
S'1.50000'
p1558
sg14
g114
sg16
S'1.87000'
p1559
sg18
g151
sg19
S'1.50000'
p1560
sg21
S'1.34000'
p1561
sbtp1562
a(g58
g4
(g5
g6
Ntp1563
Rp1564
(dp1565
g10
g11
sg12
S'0.78000'
p1566
sg14
g114
sg16
S'0.81000'
p1567
sg18
g58
sg19
S'0.78000'
p1568
sg21
S'0.75000'
p1569
sbtp1570
a(g58
g4
(g5
g6
Ntp1571
Rp1572
(dp1573
g10
g11
sg12
S'1.11000'
p1574
sg14
g114
sg16
S'1.17000'
p1575
sg18
g58
sg19
S'1.11000'
p1576
sg21
S'1.00000'
p1577
sbtp1578
a(g180
g4
(g5
g6
Ntp1579
Rp1580
(dp1581
g10
g11
sg12
S'0.60000'
p1582
sg14
g114
sg16
S'0.72000'
p1583
sg18
g180
sg19
S'0.60000'
p1584
sg21
S'0.51000'
p1585
sbtp1586
a(g75
g4
(g5
g6
Ntp1587
Rp1588
(dp1589
g10
g11
sg12
S'0.69000'
p1590
sg14
g114
sg16
S'0.82000'
p1591
sg18
g75
sg19
S'0.69000'
p1592
sg21
S'0.59000'
p1593
sbtp1594
a(g3
g4
(g5
g6
Ntp1595
Rp1596
(dp1597
g10
g11
sg12
S'1.93000'
p1598
sg14
g114
sg16
S'2.12000'
p1599
sg18
g3
sg19
S'1.93000'
p1600
sg21
S'1.79000'
p1601
sbtp1602
a(g519
g4
(g5
g6
Ntp1603
Rp1604
(dp1605
g10
g11
sg12
S'1.01000'
p1606
sg14
g114
sg16
S'1.12000'
p1607
sg18
g519
sg19
S'1.01000'
p1608
sg21
S'0.81000'
p1609
sbtp1610
a(g229
g4
(g5
g6
Ntp1611
Rp1612
(dp1613
g10
g11
sg12
S'1.42000'
p1614
sg14
g114
sg16
S'1.74000'
p1615
sg18
g229
sg19
S'1.42000'
p1616
sg21
S'1.25000'
p1617
sbtp1618
asS'k_eS'
p1619
(lp1620
(g110
g4
(g5
g6
Ntp1621
Rp1622
(dp1623
g10
g807
sg12
S'0.18000'
p1624
sg14
S'eS'
p1625
sg16
S'0.21000'
p1626
sg18
g110
sg19
S'0.18000'
p1627
sg21
S'0.15000'
p1628
sbtp1629
a(g465
g4
(g5
g6
Ntp1630
Rp1631
(dp1632
g10
g807
sg12
S'0.14000'
p1633
sg14
S'eS'
p1634
sg16
S'0.17000'
p1635
sg18
g465
sg19
S'0.14000'
p1636
sg21
S'0.11000'
p1637
sbtp1638
a(g1474
g4
(g5
g6
Ntp1639
Rp1640
(dp1641
g10
g807
sg12
S'1.49000'
p1642
sg14
S'eS'
p1643
sg16
S'1.52000'
p1644
sg18
g1474
sg19
S'1.49000'
p1645
sg21
S'1.44000'
p1646
sbtp1647
a(g229
g4
(g5
g6
Ntp1648
Rp1649
(dp1650
g10
g807
sg12
S'0.16000'
p1651
sg14
S'eS'
p1652
sg16
S'0.19000'
p1653
sg18
g229
sg19
S'0.16000'
p1654
sg21
S'0.13000'
p1655
sbtp1656
asS'rr_aS'
p1657
(lp1658
(g58
g4
(g5
g6
Ntp1659
Rp1660
(dp1661
g10
S'rr'
p1662
sg12
S'4.96000'
p1663
sg14
S'aS'
p1664
sg16
S'5.02000'
p1665
sg18
g58
sg19
S'4.96000'
p1666
sg21
S'4.46000'
p1667
sbtp1668
asS'd_e'
p1669
(lp1670
(g141
g4
(g5
g6
Ntp1671
Rp1672
(dp1673
g10
g339
sg12
S'1.12000'
p1674
sg14
g11
sg16
S'1.27000'
p1675
sg18
g141
sg19
S'1.12000'
p1676
sg21
S'1.04000'
p1677
sbtp1678
a(g151
g4
(g5
g6
Ntp1679
Rp1680
(dp1681
g10
g339
sg12
S'0.88000'
p1682
sg14
g11
sg16
S'0.91000'
p1683
sg18
g151
sg19
S'0.88000'
p1684
sg21
S'0.85000'
p1685
sbtp1686
a(g58
g4
(g5
g6
Ntp1687
Rp1688
(dp1689
g10
g339
sg12
S'0.75000'
p1690
sg14
g11
sg16
S'0.78000'
p1691
sg18
g58
sg19
S'0.75000'
p1692
sg21
S'0.72000'
p1693
sbtp1694
a(g58
g4
(g5
g6
Ntp1695
Rp1696
(dp1697
g10
g339
sg12
S'1.00000'
p1698
sg14
g11
sg16
S'1.11000'
p1699
sg18
g58
sg19
S'1.00000'
p1700
sg21
S'0.97000'
p1701
sbtp1702
a(g58
g4
(g5
g6
Ntp1703
Rp1704
(dp1705
g10
g339
sg12
S'2.71000'
p1706
sg14
g11
sg16
S'2.77000'
p1707
sg18
g58
sg19
S'2.71000'
p1708
sg21
S'2.68000'
p1709
sbtp1710
a(g1474
g4
(g5
g6
Ntp1711
Rp1712
(dp1713
g10
g339
sg12
S'1.39000'
p1714
sg14
g11
sg16
S'1.44000'
p1715
sg18
g1474
sg19
S'1.39000'
p1716
sg21
S'1.14000'
p1717
sbtp1718
a(g311
g4
(g5
g6
Ntp1719
Rp1720
(dp1721
g10
g339
sg12
S'1.63000'
p1722
sg14
g11
sg16
S'1.66000'
p1723
sg18
g311
sg19
S'1.63000'
p1724
sg21
S'1.60000'
p1725
sbtp1726
asS'o_u'
p1727
(lp1728
(g58
g4
(g5
g6
Ntp1729
Rp1730
(dp1731
g10
g290
sg12
S'0.28000'
p1732
sg14
g51
sg16
S'0.31000'
p1733
sg18
g58
sg19
S'0.28000'
p1734
sg21
S'0.13000'
p1735
sbtp1736
asS'o_t'
p1737
(lp1738
(g131
g4
(g5
g6
Ntp1739
Rp1740
(dp1741
g10
g290
sg12
S'0.49000'
p1742
sg14
g1241
sg16
S'0.65000'
p1743
sg18
g131
sg19
S'0.49000'
p1744
sg21
S'0.42000'
p1745
sbtp1746
a(g1325
g4
(g5
g6
Ntp1747
Rp1748
(dp1749
g10
g290
sg12
S'0.45000'
p1750
sg14
g1241
sg16
S'0.53000'
p1751
sg18
g1325
sg19
S'0.45000'
p1752
sg21
S'0.35000'
p1753
sbtp1754
a(g642
g4
(g5
g6
Ntp1755
Rp1756
(dp1757
g10
g290
sg12
S'0.43000'
p1758
sg14
g1241
sg16
S'0.51000'
p1759
sg18
g642
sg19
S'0.43000'
p1760
sg21
S'0.32000'
p1761
sbtp1762
a(g1452
g4
(g5
g6
Ntp1763
Rp1764
(dp1765
g10
g290
sg12
S'0.39000'
p1766
sg14
g1241
sg16
S'0.53000'
p1767
sg18
g1452
sg19
S'0.39000'
p1768
sg21
S'0.22000'
p1769
sbtp1770
a(g3
g4
(g5
g6
Ntp1771
Rp1772
(dp1773
g10
g290
sg12
S'0.47000'
p1774
sg14
g1241
sg16
S'0.67000'
p1775
sg18
g3
sg19
S'0.47000'
p1776
sg21
S'0.25000'
p1777
sbtp1778
asS'f_o'
p1779
(lp1780
(g444
g4
(g5
g6
Ntp1781
Rp1782
(dp1783
g10
g490
sg12
S'1.58000'
p1784
sg14
g290
sg16
S'1.61000'
p1785
sg18
g444
sg19
S'1.58000'
p1786
sg21
S'1.55000'
p1787
sbtp1788
asS'o_p'
p1789
(lp1790
(g286
g4
(g5
g6
Ntp1791
Rp1792
(dp1793
g10
g290
sg12
S'0.95000'
p1794
sg14
g15
sg16
S'1.16000'
p1795
sg18
g286
sg19
S'0.95000'
p1796
sg21
S'0.85000'
p1797
sbtp1798
a(g432
g4
(g5
g6
Ntp1799
Rp1800
(dp1801
g10
g290
sg12
S'0.93000'
p1802
sg14
g15
sg16
S'1.13000'
p1803
sg18
g432
sg19
S'0.93000'
p1804
sg21
S'0.90000'
p1805
sbtp1806
a(g567
g4
(g5
g6
Ntp1807
Rp1808
(dp1809
g10
g290
sg12
S'0.86000'
p1810
sg14
g15
sg16
S'0.93000'
p1811
sg18
g567
sg19
S'0.86000'
p1812
sg21
S'0.73000'
p1813
sbtp1814
a(g97
g4
(g5
g6
Ntp1815
Rp1816
(dp1817
g10
g290
sg12
S'0.30000'
p1818
sg14
g15
sg16
S'0.49000'
p1819
sg18
g97
sg19
S'0.30000'
p1820
sg21
S'0.25000'
p1821
sbtp1822
asS'o_s'
p1823
(lp1824
(g47
g4
(g5
g6
Ntp1825
Rp1826
(dp1827
g10
g290
sg12
S'0.41000'
p1828
sg14
g302
sg16
S'0.54000'
p1829
sg18
g47
sg19
S'0.41000'
p1830
sg21
S'0.29000'
p1831
sbtp1832
a(g367
g4
(g5
g6
Ntp1833
Rp1834
(dp1835
g10
g290
sg12
S'0.69000'
p1836
sg14
g302
sg16
S'1.09000'
p1837
sg18
g367
sg19
S'0.69000'
p1838
sg21
S'0.58000'
p1839
sbtp1840
a(g389
g4
(g5
g6
Ntp1841
Rp1842
(dp1843
g10
g290
sg12
S'0.31000'
p1844
sg14
g302
sg16
S'0.45000'
p1845
sg18
g389
sg19
S'0.31000'
p1846
sg21
S'0.20000'
p1847
sbtp1848
a(g58
g4
(g5
g6
Ntp1849
Rp1850
(dp1851
g10
g290
sg12
S'1.83000'
p1852
sg14
g302
sg16
S'1.86000'
p1853
sg18
g58
sg19
S'1.83000'
p1854
sg21
S'1.80000'
p1855
sbtp1856
asS'o_r'
p1857
(lp1858
(g47
g4
(g5
g6
Ntp1859
Rp1860
(dp1861
g10
g290
sg12
S'1.57000'
p1862
sg14
g572
sg16
S'1.65000'
p1863
sg18
g47
sg19
S'1.57000'
p1864
sg21
S'1.41000'
p1865
sbtp1866
a(g444
g4
(g5
g6
Ntp1867
Rp1868
(dp1869
g10
g290
sg12
S'1.61000'
p1870
sg14
g572
sg16
S'1.64000'
p1871
sg18
g444
sg19
S'1.61000'
p1872
sg21
S'1.58000'
p1873
sbtp1874
asS'e_sp'
p1875
(lp1876
(g567
g4
(g5
g6
Ntp1877
Rp1878
(dp1879
g10
g11
sg12
S'0.17000'
p1880
sg14
g393
sg16
S'0.20000'
p1881
sg18
g567
sg19
S'0.17000'
p1882
sg21
S'0.14000'
p1883
sbtp1884
a(g34
g4
(g5
g6
Ntp1885
Rp1886
(dp1887
g10
g11
sg12
S'0.19000'
p1888
sg14
g393
sg16
S'0.22000'
p1889
sg18
g34
sg19
S'0.19000'
p1890
sg21
S'0.16000'
p1891
sbtp1892
a(g75
g4
(g5
g6
Ntp1893
Rp1894
(dp1895
g10
g11
sg12
S'1.64000'
p1896
sg14
g393
sg16
S'1.66000'
p1897
sg18
g75
sg19
S'1.64000'
p1898
sg21
S'1.59000'
p1899
sbtp1900
asS'p_e'
p1901
(lp1902
(g3
g4
(g5
g6
Ntp1903
Rp1904
(dp1905
g10
g15
sg12
S'1.79000'
p1906
sg14
g11
sg16
S'1.93000'
p1907
sg18
g3
sg19
S'1.79000'
p1908
sg21
S'1.71000'
p1909
sbtp1910
asS'r_sp'
p1911
(lp1912
(g47
g4
(g5
g6
Ntp1913
Rp1914
(dp1915
g10
g572
sg12
S'1.65000'
p1916
sg14
g393
sg16
S'1.80000'
p1917
sg18
g47
sg19
S'1.65000'
p1918
sg21
S'1.57000'
p1919
sbtp1920
a(g567
g4
(g5
g6
Ntp1921
Rp1922
(dp1923
g10
g572
sg12
S'1.49000'
p1924
sg14
g393
sg16
S'1.50000'
p1925
sg18
g567
sg19
S'1.49000'
p1926
sg21
S'1.46000'
p1927
sbtp1928
a(g465
g4
(g5
g6
Ntp1929
Rp1930
(dp1931
g10
g572
sg12
S'1.53000'
p1932
sg14
g393
sg16
S'1.65000'
p1933
sg18
g465
sg19
S'1.53000'
p1934
sg21
S'1.49000'
p1935
sbtp1936
asS's_aS'
p1937
(lp1938
(g540
g4
(g5
g6
Ntp1939
Rp1940
(dp1941
g10
g302
sg12
S'1.31000'
p1942
sg14
S'aS'
p1943
sg16
S'1.62000'
p1944
sg18
g540
sg19
S'1.31000'
p1945
sg21
S'1.11000'
p1946
sbtp1947
asS'g_r'
p1948
(lp1949
(g161
g4
(g5
g6
Ntp1950
Rp1951
(dp1952
g10
g448
sg12
S'0.82000'
p1953
sg14
g572
sg16
S'0.89000'
p1954
sg18
g161
sg19
S'0.82000'
p1955
sg21
S'0.70000'
p1956
sbtp1957
asS'o_e'
p1958
(lp1959
(g540
g4
(g5
g6
Ntp1960
Rp1961
(dp1962
g10
g290
sg12
S'0.36000'
p1963
sg14
g11
sg16
S'0.46000'
p1964
sg18
g540
sg19
S'0.36000'
p1965
sg21
S'0.16000'
p1966
sbtp1967
a(g180
g4
(g5
g6
Ntp1968
Rp1969
(dp1970
g10
g290
sg12
S'0.51000'
p1971
sg14
g11
sg16
S'0.60000'
p1972
sg18
g180
sg19
S'0.51000'
p1973
sg21
S'0.37000'
p1974
sbtp1975
a(g86
g4
(g5
g6
Ntp1976
Rp1977
(dp1978
g10
g290
sg12
S'0.75000'
p1979
sg14
g11
sg16
S'0.79000'
p1980
sg18
g86
sg19
S'0.75000'
p1981
sg21
S'0.55000'
p1982
sbtp1983
asS'g_l'
p1984
(lp1985
(g121
g4
(g5
g6
Ntp1986
Rp1987
(dp1988
g10
g448
sg12
S'1.33000'
p1989
sg14
g687
sg16
S'1.43000'
p1990
sg18
g121
sg19
S'1.33000'
p1991
sg21
S'0.83000'
p1992
sbtp1993
asS'g_o'
p1994
(lp1995
(g1325
g4
(g5
g6
Ntp1996
Rp1997
(dp1998
g10
g448
sg12
S'0.35000'
p1999
sg14
g290
sg16
S'0.45000'
p2000
sg18
g1325
sg19
S'0.35000'
p2001
sg21
S'0.17000'
p2002
sbtp2003
a(g642
g4
(g5
g6
Ntp2004
Rp2005
(dp2006
g10
g448
sg12
S'0.32000'
p2007
sg14
g290
sg16
S'0.43000'
p2008
sg18
g642
sg19
S'0.32000'
p2009
sg21
S'0.15000'
p2010
sbtp2011
a(g190
g4
(g5
g6
Ntp2012
Rp2013
(dp2014
g10
g448
sg12
S'0.31000'
p2015
sg14
g290
sg16
S'0.41000'
p2016
sg18
g190
sg19
S'0.31000'
p2017
sg21
S'0.17000'
p2018
sbtp2019
a(g86
g4
(g5
g6
Ntp2020
Rp2021
(dp2022
g10
g448
sg12
S'1.74000'
p2023
sg14
g290
sg16
S'1.78000'
p2024
sg18
g86
sg19
S'1.74000'
p2025
sg21
S'1.66000'
p2026
sbtp2027
a(g653
g4
(g5
g6
Ntp2028
Rp2029
(dp2030
g10
g448
sg12
S'0.79000'
p2031
sg14
g290
sg16
S'0.85000'
p2032
sg18
g653
sg19
S'0.79000'
p2033
sg21
S'0.16000'
p2034
sbtp2035
asS'o_a'
p2036
(lp2037
(g97
g4
(g5
g6
Ntp2038
Rp2039
(dp2040
g10
g290
sg12
S'1.07000'
p2041
sg14
g244
sg16
S'1.25000'
p2042
sg18
g97
sg19
S'1.07000'
p2043
sg21
S'0.97000'
p2044
sbtp2045
asS'm_e'
p2046
(lp2047
(g444
g4
(g5
g6
Ntp2048
Rp2049
(dp2050
g10
g610
sg12
S'0.05000'
p2051
sg14
g11
sg16
S'0.08000'
p2052
sg18
g444
sg19
S'0.05000'
p2053
sg21
S'0.02000'
p2054
sbtp2055
a(g567
g4
(g5
g6
Ntp2056
Rp2057
(dp2058
g10
g610
sg12
S'0.14000'
p2059
sg14
g11
sg16
S'0.17000'
p2060
sg18
g567
sg19
S'0.14000'
p2061
sg21
S'0.11000'
p2062
sbtp2063
a(g219
g4
(g5
g6
Ntp2064
Rp2065
(dp2066
g10
g610
sg12
S'0.12000'
p2067
sg14
g11
sg16
S'0.15000'
p2068
sg18
g219
sg19
S'0.12000'
p2069
sg21
S'0.09000'
p2070
sbtp2071
asS'o_b'
p2072
(lp2073
(g455
g4
(g5
g6
Ntp2074
Rp2075
(dp2076
g10
g290
sg12
S'1.36000'
p2077
sg14
g38
sg16
S'1.39000'
p2078
sg18
g455
sg19
S'1.36000'
p2079
sg21
S'1.31000'
p2080
sbtp2081
a(g86
g4
(g5
g6
Ntp2082
Rp2083
(dp2084
g10
g290
sg12
S'0.30000'
p2085
sg14
g38
sg16
S'0.35000'
p2086
sg18
g86
sg19
S'0.30000'
p2087
sg21
S'0.24000'
p2088
sbtp2089
a(g653
g4
(g5
g6
Ntp2090
Rp2091
(dp2092
g10
g290
sg12
S'0.85000'
p2093
sg14
g38
sg16
S'0.88000'
p2094
sg18
g653
sg19
S'0.85000'
p2095
sg21
S'0.79000'
p2096
sbtp2097
asS'o_m'
p2098
(lp2099
(g110
g4
(g5
g6
Ntp2100
Rp2101
(dp2102
g10
g290
sg12
S'0.68000'
p2103
sg14
g610
sg16
S'0.80000'
p2104
sg18
g110
sg19
S'0.68000'
p2105
sg21
S'0.65000'
p2106
sbtp2107
a(g219
g4
(g5
g6
Ntp2108
Rp2109
(dp2110
g10
g290
sg12
S'1.47000'
p2111
sg14
g610
sg16
S'1.62000'
p2112
sg18
g219
sg19
S'1.47000'
p2113
sg21
S'1.44000'
p2114
sbtp2115
asS'o_l'
p2116
(lp2117
(g947
g4
(g5
g6
Ntp2118
Rp2119
(dp2120
g10
g290
sg12
S'0.88000'
p2121
sg14
g687
sg16
S'1.02000'
p2122
sg18
g947
sg19
S'0.88000'
p2123
sg21
S'0.84000'
p2124
sbtp2125
a(g377
g4
(g5
g6
Ntp2126
Rp2127
(dp2128
g10
g290
sg12
S'1.29000'
p2129
sg14
g687
sg16
S'1.54000'
p2130
sg18
g377
sg19
S'1.29000'
p2131
sg21
S'1.21000'
p2132
sbtp2133
asS'uS_n'
p2134
(lp2135
(g286
g4
(g5
g6
Ntp2136
Rp2137
(dp2138
g10
S'uS'
p2139
sg12
S'0.75000'
p2140
sg14
g53
sg16
S'0.82000'
p2141
sg18
g286
sg19
S'0.75000'
p2142
sg21
S'0.72000'
p2143
sbtp2144
a(g455
g4
(g5
g6
Ntp2145
Rp2146
(dp2147
g10
S'uS'
p2148
sg12
S'1.11000'
p2149
sg14
g53
sg16
S'1.14000'
p2150
sg18
g455
sg19
S'1.11000'
p2151
sg21
S'1.08000'
p2152
sbtp2153
a(g389
g4
(g5
g6
Ntp2154
Rp2155
(dp2156
g10
S'uS'
p2157
sg12
S'0.94000'
p2158
sg14
g53
sg16
S'1.05000'
p2159
sg18
g389
sg19
S'0.94000'
p2160
sg21
S'0.84000'
p2161
sbtp2162
asS'o_i'
p2163
(lp2164
(g121
g4
(g5
g6
Ntp2165
Rp2166
(dp2167
g10
g290
sg12
S'0.39000'
p2168
sg14
g612
sg16
S'0.62000'
p2169
sg18
g121
sg19
S'0.39000'
p2170
sg21
S'0.35000'
p2171
sbtp2172
asS'uS_h'
p2173
(lp2174
(g444
g4
(g5
g6
Ntp2175
Rp2176
(dp2177
g10
S'uS'
p2178
sg12
S'0.49000'
p2179
sg14
g114
sg16
S'0.63000'
p2180
sg18
g444
sg19
S'0.49000'
p2181
sg21
S'0.11000'
p2182
sbtp2183
a(g465
g4
(g5
g6
Ntp2184
Rp2185
(dp2186
g10
S'uS'
p2187
sg12
S'0.58000'
p2188
sg14
g114
sg16
S'0.70000'
p2189
sg18
g465
sg19
S'0.58000'
p2190
sg21
S'0.34000'
p2191
sbtp2192
a(g219
g4
(g5
g6
Ntp2193
Rp2194
(dp2195
g10
S'uS'
p2196
sg12
S'0.39000'
p2197
sg14
g114
sg16
S'0.52000'
p2198
sg18
g219
sg19
S'0.39000'
p2199
sg21
S'0.18000'
p2200
sbtp2201
asS'o_k'
p2202
(lp2203
(g367
g4
(g5
g6
Ntp2204
Rp2205
(dp2206
g10
g290
sg12
S'0.29000'
p2207
sg14
g807
sg16
S'0.32000'
p2208
sg18
g367
sg19
S'0.29000'
p2209
sg21
S'0.18000'
p2210
sbtp2211
a(g190
g4
(g5
g6
Ntp2212
Rp2213
(dp2214
g10
g290
sg12
S'0.41000'
p2215
sg14
g807
sg16
S'0.44000'
p2216
sg18
g190
sg19
S'0.41000'
p2217
sg21
S'0.31000'
p2218
sbtp2219
a(g3
g4
(g5
g6
Ntp2220
Rp2221
(dp2222
g10
g290
sg12
S'0.95000'
p2223
sg14
g807
sg16
S'1.03000'
p2224
sg18
g3
sg19
S'0.95000'
p2225
sg21
S'0.92000'
p2226
sbtp2227
asS'bA_e'
p2228
(lp2229
(g151
g4
(g5
g6
Ntp2230
Rp2231
(dp2232
g10
S'bA'
p2233
sg12
S'1.34000'
p2234
sg14
g11
sg16
S'1.50000'
p2235
sg18
g151
sg19
S'1.34000'
p2236
sg21
S'1.31000'
p2237
sbtp2238
asS'h_l'
p2239
(lp2240
(g58
g4
(g5
g6
Ntp2241
Rp2242
(dp2243
g10
g114
sg12
S'1.17000'
p2244
sg14
g687
sg16
S'1.47000'
p2245
sg18
g58
sg19
S'1.17000'
p2246
sg21
S'1.11000'
p2247
sbtp2248
asS't_i'
p2249
(lp2250
(g444
g4
(g5
g6
Ntp2251
Rp2252
(dp2253
g10
g1241
sg12
S'2.03000'
p2254
sg14
g612
sg16
S'2.12000'
p2255
sg18
g444
sg19
S'2.03000'
p2256
sg21
S'1.92000'
p2257
sbtp2258
asS't_o'
p2259
(lp2260
(g47
g4
(g5
g6
Ntp2261
Rp2262
(dp2263
g10
g1241
sg12
S'1.41000'
p2264
sg14
g290
sg16
S'1.57000'
p2265
sg18
g47
sg19
S'1.41000'
p2266
sg21
S'1.35000'
p2267
sbtp2268
a(S'./data/37_pilar.TextGrid'
p2269
g4
(g5
g6
Ntp2270
Rp2271
(dp2272
g10
g1241
sg12
S'1.15000'
p2273
sg14
g290
sg16
S'1.18000'
p2274
sg18
g2269
sg19
S'1.15000'
p2275
sg21
S'1.12000'
p2276
sbtp2277
asS's_iS'
p2278
(lp2279
(g519
g4
(g5
g6
Ntp2280
Rp2281
(dp2282
g10
g302
sg12
S'0.43000'
p2283
sg14
S'iS'
p2284
sg16
S'0.81000'
p2285
sg18
g519
sg19
S'0.43000'
p2286
sg21
S'0.22000'
p2287
sbtp2288
a(g97
g4
(g5
g6
Ntp2289
Rp2290
(dp2291
g10
g302
sg12
S'1.46000'
p2292
sg14
S'iS'
p2293
sg16
S'1.68000'
p2294
sg18
g97
sg19
S'1.46000'
p2295
sg21
S'1.25000'
p2296
sbtp2297
asS'e_b'
p2298
(lp2299
(g151
g4
(g5
g6
Ntp2300
Rp2301
(dp2302
g10
g11
sg12
S'0.91000'
p2303
sg14
g38
sg16
S'1.08000'
p2304
sg18
g151
sg19
S'0.91000'
p2305
sg21
S'0.88000'
p2306
sbtp2307
a(g34
g4
(g5
g6
Ntp2308
Rp2309
(dp2310
g10
g11
sg12
S'0.35000'
p2311
sg14
g38
sg16
S'0.39000'
p2312
sg18
g34
sg19
S'0.35000'
p2313
sg21
S'0.30000'
p2314
sbtp2315
asS'iS_l'
p2316
(lp2317
(g567
g4
(g5
g6
Ntp2318
Rp2319
(dp2320
g10
S'iS'
p2321
sg12
S'1.02000'
p2322
sg14
g687
sg16
S'1.10000'
p2323
sg18
g567
sg19
S'1.02000'
p2324
sg21
S'0.93000'
p2325
sbtp2326
asS't_a'
p2327
(lp2328
(g444
g4
(g5
g6
Ntp2329
Rp2330
(dp2331
g10
g1241
sg12
S'0.70000'
p2332
sg14
g244
sg16
S'0.80000'
p2333
sg18
g444
sg19
S'0.70000'
p2334
sg21
S'0.63000'
p2335
sbtp2336
a(g642
g4
(g5
g6
Ntp2337
Rp2338
(dp2339
g10
g1241
sg12
S'0.88000'
p2340
sg14
g244
sg16
S'1.12000'
p2341
sg18
g642
sg19
S'0.88000'
p2342
sg21
S'0.77000'
p2343
sbtp2344
a(g465
g4
(g5
g6
Ntp2345
Rp2346
(dp2347
g10
g1241
sg12
S'0.78000'
p2348
sg14
g244
sg16
S'0.94000'
p2349
sg18
g465
sg19
S'0.78000'
p2350
sg21
S'0.70000'
p2351
sbtp2352
a(g190
g4
(g5
g6
Ntp2353
Rp2354
(dp2355
g10
g1241
sg12
S'0.99000'
p2356
sg14
g244
sg16
S'1.16000'
p2357
sg18
g190
sg19
S'0.99000'
p2358
sg21
S'0.91000'
p2359
sbtp2360
a(g629
g4
(g5
g6
Ntp2361
Rp2362
(dp2363
g10
g1241
sg12
S'0.39000'
p2364
sg14
g244
sg16
S'0.44000'
p2365
sg18
g629
sg19
S'0.39000'
p2366
sg21
S'0.32000'
p2367
sbtp2368
a(g311
g4
(g5
g6
Ntp2369
Rp2370
(dp2371
g10
g1241
sg12
S'0.41000'
p2372
sg14
g244
sg16
S'0.47000'
p2373
sg18
g311
sg19
S'0.41000'
p2374
sg21
S'0.32000'
p2375
sbtp2376
a(g219
g4
(g5
g6
Ntp2377
Rp2378
(dp2379
g10
g1241
sg12
S'0.60000'
p2380
sg14
g244
sg16
S'0.67000'
p2381
sg18
g219
sg19
S'0.60000'
p2382
sg21
S'0.52000'
p2383
sbtp2384
a(g2269
g4
(g5
g6
Ntp2385
Rp2386
(dp2387
g10
g1241
sg12
S'0.44000'
p2388
sg14
g244
sg16
S'0.53000'
p2389
sg18
g2269
sg19
S'0.44000'
p2390
sg21
S'0.36000'
p2391
sbtp2392
asS't_e'
p2393
(lp2394
(g131
g4
(g5
g6
Ntp2395
Rp2396
(dp2397
g10
g1241
sg12
S'0.65000'
p2398
sg14
g11
sg16
S'0.68000'
p2399
sg18
g131
sg19
S'0.65000'
p2400
sg21
S'0.49000'
p2401
sbtp2402
a(g465
g4
(g5
g6
Ntp2403
Rp2404
(dp2405
g10
g1241
sg12
S'0.20000'
p2406
sg14
g11
sg16
S'0.23000'
p2407
sg18
g465
sg19
S'0.20000'
p2408
sg21
S'0.17000'
p2409
sbtp2410
a(g34
g4
(g5
g6
Ntp2411
Rp2412
(dp2413
g10
g1241
sg12
S'0.30000'
p2414
sg14
g11
sg16
S'0.35000'
p2415
sg18
g34
sg19
S'0.30000'
p2416
sg21
S'0.22000'
p2417
sbtp2418
a(g1452
g4
(g5
g6
Ntp2419
Rp2420
(dp2421
g10
g1241
sg12
S'0.53000'
p2422
sg14
g11
sg16
S'0.67000'
p2423
sg18
g1452
sg19
S'0.53000'
p2424
sg21
S'0.39000'
p2425
sbtp2426
a(g1452
g4
(g5
g6
Ntp2427
Rp2428
(dp2429
g10
g1241
sg12
S'1.09000'
p2430
sg14
g11
sg16
S'1.20000'
p2431
sg18
g1452
sg19
S'1.09000'
p2432
sg21
S'1.01000'
p2433
sbtp2434
a(g3
g4
(g5
g6
Ntp2435
Rp2436
(dp2437
g10
g1241
sg12
S'0.67000'
p2438
sg14
g11
sg16
S'0.71000'
p2439
sg18
g3
sg19
S'0.67000'
p2440
sg21
S'0.47000'
p2441
sbtp2442
a(g653
g4
(g5
g6
Ntp2443
Rp2444
(dp2445
g10
g1241
sg12
S'1.10000'
p2446
sg14
g11
sg16
S'1.13000'
p2447
sg18
g653
sg19
S'1.10000'
p2448
sg21
S'1.04000'
p2449
sbtp2450
asS's_a'
p2451
(lp2452
(g432
g4
(g5
g6
Ntp2453
Rp2454
(dp2455
g10
g302
sg12
S'0.34000'
p2456
sg14
g244
sg16
S'0.52000'
p2457
sg18
g432
sg19
S'0.34000'
p2458
sg21
S'0.17000'
p2459
sbtp2460
a(g86
g4
(g5
g6
Ntp2461
Rp2462
(dp2463
g10
g302
sg12
S'1.00000'
p2464
sg14
g244
sg16
S'1.07000'
p2465
sg18
g86
sg19
S'1.00000'
p2466
sg21
S'0.86000'
p2467
sbtp2468
asS's_e'
p2469
(lp2470
(g367
g4
(g5
g6
Ntp2471
Rp2472
(dp2473
g10
g302
sg12
S'1.50000'
p2474
sg14
g11
sg16
S'1.56000'
p2475
sg18
g367
sg19
S'1.50000'
p2476
sg21
S'1.31000'
p2477
sbtp2478
a(g465
g4
(g5
g6
Ntp2479
Rp2480
(dp2481
g10
g302
sg12
S'1.33000'
p2482
sg14
g11
sg16
S'1.49000'
p2483
sg18
g465
sg19
S'1.33000'
p2484
sg21
S'1.10000'
p2485
sbtp2486
asS'd_oS'
p2487
(lp2488
(g151
g4
(g5
g6
Ntp2489
Rp2490
(dp2491
g10
g339
sg12
S'0.76000'
p2492
sg14
S'oS'
p2493
sg16
S'0.82000'
p2494
sg18
g151
sg19
S'0.76000'
p2495
sg21
S'0.03000'
p2496
sbtp2497
asS't_r'
p2498
(lp2499
(g1325
g4
(g5
g6
Ntp2500
Rp2501
(dp2502
g10
g1241
sg12
S'0.53000'
p2503
sg14
g572
sg16
S'0.57000'
p2504
sg18
g1325
sg19
S'0.53000'
p2505
sg21
S'0.45000'
p2506
sbtp2507
a(g642
g4
(g5
g6
Ntp2508
Rp2509
(dp2510
g10
g1241
sg12
S'0.51000'
p2511
sg14
g572
sg16
S'0.55000'
p2512
sg18
g642
sg19
S'0.51000'
p2513
sg21
S'0.43000'
p2514
sbtp2515
a(g58
g4
(g5
g6
Ntp2516
Rp2517
(dp2518
g10
g1241
sg12
S'0.66000'
p2519
sg14
g572
sg16
S'0.69000'
p2520
sg18
g58
sg19
S'0.66000'
p2521
sg21
S'0.55000'
p2522
sbtp2523
asS'iSC_oS'
p2524
(lp2525
(g286
g4
(g5
g6
Ntp2526
Rp2527
(dp2528
g10
S'iSC'
p2529
sg12
S'2.06000'
p2530
sg14
S'oS'
p2531
sg16
S'2.09000'
p2532
sg18
g286
sg19
S'2.06000'
p2533
sg21
S'1.53000'
p2534
sbtp2535
a(g432
g4
(g5
g6
Ntp2536
Rp2537
(dp2538
g10
S'iSC'
p2539
sg12
S'1.76000'
p2540
sg14
S'oS'
p2541
sg16
S'1.79000'
p2542
sg18
g432
sg19
S'1.76000'
p2543
sg21
S'1.21000'
p2544
sbtp2545
a(g367
g4
(g5
g6
Ntp2546
Rp2547
(dp2548
g10
S'iSC'
p2549
sg12
S'2.03000'
p2550
sg14
S'oS'
p2551
sg16
S'2.06000'
p2552
sg18
g367
sg19
S'2.03000'
p2553
sg21
S'1.80000'
p2554
sbtp2555
asS's_o'
p2556
(lp2557
(g947
g4
(g5
g6
Ntp2558
Rp2559
(dp2560
g10
g302
sg12
S'0.84000'
p2561
sg14
g290
sg16
S'0.88000'
p2562
sg18
g947
sg19
S'0.84000'
p2563
sg21
S'0.61000'
p2564
sbtp2565
a(g97
g4
(g5
g6
Ntp2566
Rp2567
(dp2568
g10
g302
sg12
S'0.97000'
p2569
sg14
g290
sg16
S'1.07000'
p2570
sg18
g97
sg19
S'0.97000'
p2571
sg21
S'0.78000'
p2572
sbtp2573
asS'oS_n'
p2574
(lp2575
(g286
g4
(g5
g6
Ntp2576
Rp2577
(dp2578
g10
S'oS'
p2579
sg12
S'2.09000'
p2580
sg14
g53
sg16
S'2.14000'
p2581
sg18
g286
sg19
S'2.09000'
p2582
sg21
S'2.06000'
p2583
sbtp2584
a(g432
g4
(g5
g6
Ntp2585
Rp2586
(dp2587
g10
S'oS'
p2588
sg12
S'1.79000'
p2589
sg14
g53
sg16
S'1.87000'
p2590
sg18
g432
sg19
S'1.79000'
p2591
sg21
S'1.76000'
p2592
sbtp2593
a(g367
g4
(g5
g6
Ntp2594
Rp2595
(dp2596
g10
S'oS'
p2597
sg12
S'0.40000'
p2598
sg14
g53
sg16
S'0.58000'
p2599
sg18
g367
sg19
S'0.40000'
p2600
sg21
S'0.32000'
p2601
sbtp2602
a(g151
g4
(g5
g6
Ntp2603
Rp2604
(dp2605
g10
S'oS'
p2606
sg12
S'0.82000'
p2607
sg14
g53
sg16
S'0.85000'
p2608
sg18
g151
sg19
S'0.82000'
p2609
sg21
S'0.76000'
p2610
sbtp2611
a(g2269
g4
(g5
g6
Ntp2612
Rp2613
(dp2614
g10
S'oS'
p2615
sg12
S'1.02000'
p2616
sg14
g53
sg16
S'1.12000'
p2617
sg18
g2269
sg19
S'1.02000'
p2618
sg21
S'0.93000'
p2619
sbtp2620
asS'k_o'
p2621
(lp2622
(g367
g4
(g5
g6
Ntp2623
Rp2624
(dp2625
g10
g807
sg12
S'1.12000'
p2626
sg14
g290
sg16
S'1.19000'
p2627
sg18
g367
sg19
S'1.12000'
p2628
sg21
S'1.09000'
p2629
sbtp2630
a(g58
g4
(g5
g6
Ntp2631
Rp2632
(dp2633
g10
g807
sg12
S'0.90000'
p2634
sg14
g290
sg16
S'0.97000'
p2635
sg18
g58
sg19
S'0.90000'
p2636
sg21
S'0.81000'
p2637
sbtp2638
asS'e_d'
p2639
(lp2640
(g58
g4
(g5
g6
Ntp2641
Rp2642
(dp2643
g10
g11
sg12
S'2.68000'
p2644
sg14
g339
sg16
S'2.71000'
p2645
sg18
g58
sg19
S'2.68000'
p2646
sg21
S'2.64000'
p2647
sbtp2648
asS'p_a'
p2649
(lp2650
(g58
g4
(g5
g6
Ntp2651
Rp2652
(dp2653
g10
g15
sg12
S'4.13000'
p2654
sg14
g244
sg16
S'4.16000'
p2655
sg18
g58
sg19
S'4.13000'
p2656
sg21
S'4.10000'
p2657
sbtp2658
a(g377
g4
(g5
g6
Ntp2659
Rp2660
(dp2661
g10
g15
sg12
S'0.97000'
p2662
sg14
g244
sg16
S'1.00000'
p2663
sg18
g377
sg19
S'0.97000'
p2664
sg21
S'0.91000'
p2665
sbtp2666
asS'n_sil'
p2667
(lp2668
(g286
g4
(g5
g6
Ntp2669
Rp2670
(dp2671
g10
g53
sg12
S'2.14000'
p2672
sg14
S'sil'
p2673
sg16
S'2.16000'
p2674
sg18
g286
sg19
S'2.14000'
p2675
sg21
S'2.09000'
p2676
sbtp2677
asS'llA_a'
p2678
(lp2679
(g34
g4
(g5
g6
Ntp2680
Rp2681
(dp2682
g10
S'llA'
p2683
sg12
S'0.45000'
p2684
sg14
g244
sg16
S'0.55000'
p2685
sg18
g34
sg19
S'0.45000'
p2686
sg21
S'0.42000'
p2687
sbtp2688
asS'l_sp'
p2689
(lp2690
(g377
g4
(g5
g6
Ntp2691
Rp2692
(dp2693
g10
g687
sg12
S'1.54000'
p2694
sg14
g393
sg16
S'1.57000'
p2695
sg18
g377
sg19
S'1.54000'
p2696
sg21
S'1.29000'
p2697
sbtp2698
asS'iSV_n'
p2699
(lp2700
(g642
g4
(g5
g6
Ntp2701
Rp2702
(dp2703
g10
S'iSV'
p2704
sg12
S'0.64000'
p2705
sg14
g53
sg16
S'0.77000'
p2706
sg18
g642
sg19
S'0.64000'
p2707
sg21
S'0.61000'
p2708
sbtp2709
a(g653
g4
(g5
g6
Ntp2710
Rp2711
(dp2712
g10
S'iSV'
p2713
sg12
S'1.01000'
p2714
sg14
g53
sg16
S'1.04000'
p2715
sg18
g653
sg19
S'1.01000'
p2716
sg21
S'0.98000'
p2717
sbtp2718
asS'ny_o'
p2719
(lp2720
(g642
g4
(g5
g6
Ntp2721
Rp2722
(dp2723
g10
S'ny'
p2724
sg12
S'1.80000'
p2725
sg14
g290
sg16
S'1.86000'
p2726
sg18
g642
sg19
S'1.80000'
p2727
sg21
S'1.24000'
p2728
sbtp2729
a(g190
g4
(g5
g6
Ntp2730
Rp2731
(dp2732
g10
S'ny'
p2733
sg12
S'1.89000'
p2734
sg14
g290
sg16
S'1.93000'
p2735
sg18
g190
sg19
S'1.89000'
p2736
sg21
S'1.28000'
p2737
sbtp2738
a(g377
g4
(g5
g6
Ntp2739
Rp2740
(dp2741
g10
S'ny'
p2742
sg12
S'1.21000'
p2743
sg14
g290
sg16
S'1.29000'
p2744
sg18
g377
sg19
S'1.21000'
p2745
sg21
S'1.00000'
p2746
sbtp2747
a(g653
g4
(g5
g6
Ntp2748
Rp2749
(dp2750
g10
S'ny'
p2751
sg12
S'1.79000'
p2752
sg14
g290
sg16
S'1.82000'
p2753
sg18
g653
sg19
S'1.79000'
p2754
sg21
S'1.21000'
p2755
sbtp2756
asS'p_iS'
p2757
(lp2758
(g567
g4
(g5
g6
Ntp2759
Rp2760
(dp2761
g10
g15
sg12
S'0.93000'
p2762
sg14
S'iS'
p2763
sg16
S'1.02000'
p2764
sg18
g567
sg19
S'0.93000'
p2765
sg21
S'0.86000'
p2766
sbtp2767
asS'k_uSC'
p2768
(lp2769
(g190
g4
(g5
g6
Ntp2770
Rp2771
(dp2772
g10
g807
sg12
S'0.44000'
p2773
sg14
S'uSC'
p2774
sg16
S'0.57000'
p2775
sg18
g190
sg19
S'0.44000'
p2776
sg21
S'0.41000'
p2777
sbtp2778
a(g75
g4
(g5
g6
Ntp2779
Rp2780
(dp2781
g10
g807
sg12
S'0.45000'
p2782
sg14
S'uSC'
p2783
sg16
S'0.53000'
p2784
sg18
g75
sg19
S'0.45000'
p2785
sg21
S'0.37000'
p2786
sbtp2787
asS'i_dA'
p2788
(lp2789
(g367
g4
(g5
g6
Ntp2790
Rp2791
(dp2792
g10
g612
sg12
S'1.64000'
p2793
sg14
S'dA'
p2794
sg16
S'1.80000'
p2795
sg18
g367
sg19
S'1.64000'
p2796
sg21
S'1.56000'
p2797
sbtp2798
asS'm_uS'
p2799
(lp2800
(g161
g4
(g5
g6
Ntp2801
Rp2802
(dp2803
g10
g610
sg12
S'0.05000'
p2804
sg14
S'uS'
p2805
sg16
S'0.25000'
p2806
sg18
g161
sg19
S'0.05000'
p2807
sg21
S'0.02000'
p2808
sbtp2809
asS'a_sp'
p2810
(lp2811
(g389
g4
(g5
g6
Ntp2812
Rp2813
(dp2814
g10
g244
sg12
S'1.84000'
p2815
sg14
g393
sg16
S'1.89000'
p2816
sg18
g389
sg19
S'1.84000'
p2817
sg21
S'1.66000'
p2818
sbtp2819
a(g629
g4
(g5
g6
Ntp2820
Rp2821
(dp2822
g10
g244
sg12
S'1.14000'
p2823
sg14
g393
sg16
S'1.17000'
p2824
sg18
g629
sg19
S'1.14000'
p2825
sg21
S'0.94000'
p2826
sbtp2827
asS'dA_o'
p2828
(lp2829
(g540
g4
(g5
g6
Ntp2830
Rp2831
(dp2832
g10
S'dA'
p2833
sg12
S'1.65000'
p2834
sg14
g290
sg16
S'1.73000'
p2835
sg18
g540
sg19
S'1.65000'
p2836
sg21
S'1.62000'
p2837
sbtp2838
a(g58
g4
(g5
g6
Ntp2839
Rp2840
(dp2841
g10
S'dA'
p2842
sg12
S'1.80000'
p2843
sg14
g290
sg16
S'1.83000'
p2844
sg18
g58
sg19
S'1.80000'
p2845
sg21
S'1.77000'
p2846
sbtp2847
a(g58
g4
(g5
g6
Ntp2848
Rp2849
(dp2850
g10
S'dA'
p2851
sg12
S'4.19000'
p2852
sg14
g290
sg16
S'4.24000'
p2853
sg18
g58
sg19
S'4.19000'
p2854
sg21
S'4.16000'
p2855
sbtp2856
a(g58
g4
(g5
g6
Ntp2857
Rp2858
(dp2859
g10
S'dA'
p2860
sg12
S'5.05000'
p2861
sg14
g290
sg16
S'5.08000'
p2862
sg18
g58
sg19
S'5.05000'
p2863
sg21
S'5.02000'
p2864
sbtp2865
asS'e_aS'
p2866
(lp2867
(g653
g4
(g5
g6
Ntp2868
Rp2869
(dp2870
g10
g11
sg12
S'1.13000'
p2871
sg14
S'aS'
p2872
sg16
S'1.21000'
p2873
sg18
g653
sg19
S'1.13000'
p2874
sg21
S'1.10000'
p2875
sbtp2876
asS'n_oS'
p2877
(lp2878
(g354
g4
(g5
g6
Ntp2879
Rp2880
(dp2881
g10
g53
sg12
S'0.98000'
p2882
sg14
S'oS'
p2883
sg16
S'1.13000'
p2884
sg18
g354
sg19
S'0.98000'
p2885
sg21
S'0.67000'
p2886
sbtp2887
a(g75
g4
(g5
g6
Ntp2888
Rp2889
(dp2890
g10
g53
sg12
S'1.12000'
p2891
sg14
S'oS'
p2892
sg16
S'1.15000'
p2893
sg18
g75
sg19
S'1.12000'
p2894
sg21
S'0.99000'
p2895
sbtp2896
asS'sp_ll'
p2897
(lp2898
(g567
g4
(g5
g6
Ntp2899
Rp2900
(dp2901
g10
g393
sg12
S'0.20000'
p2902
sg14
S'll'
p2903
sg16
S'0.42000'
p2904
sg18
g567
sg19
S'0.20000'
p2905
sg21
S'0.17000'
p2906
sbtp2907
asS'sp_l'
p2908
(lp2909
(g519
g4
(g5
g6
Ntp2910
Rp2911
(dp2912
g10
g393
sg12
S'1.13000'
p2913
sg14
g687
sg16
S'1.23000'
p2914
sg18
g519
sg19
S'1.13000'
p2915
sg21
S'1.12000'
p2916
sbtp2917
asS'n_e'
p2918
(lp2919
(g229
g4
(g5
g6
Ntp2920
Rp2921
(dp2922
g10
g53
sg12
S'1.25000'
p2923
sg14
g11
sg16
S'1.42000'
p2924
sg18
g229
sg19
S'1.25000'
p2925
sg21
S'1.17000'
p2926
sbtp2927
asS'h_sp'
p2928
(lp2929
(g286
g4
(g5
g6
Ntp2930
Rp2931
(dp2932
g10
g114
sg12
S'0.40000'
p2933
sg14
g393
sg16
S'0.44000'
p2934
sg18
g286
sg19
S'0.40000'
p2935
sg21
S'0.23000'
p2936
sbtp2937
a(g354
g4
(g5
g6
Ntp2938
Rp2939
(dp2940
g10
g114
sg12
S'1.59000'
p2941
sg14
g393
sg16
S'1.63000'
p2942
sg18
g354
sg19
S'1.59000'
p2943
sg21
S'1.27000'
p2944
sbtp2945
a(g432
g4
(g5
g6
Ntp2946
Rp2947
(dp2948
g10
g114
sg12
S'0.78000'
p2949
sg14
g393
sg16
S'0.84000'
p2950
sg18
g432
sg19
S'0.78000'
p2951
sg21
S'0.70000'
p2952
sbtp2953
a(g1325
g4
(g5
g6
Ntp2954
Rp2955
(dp2956
g10
g114
sg12
S'0.93000'
p2957
sg14
g393
sg16
S'0.96000'
p2958
sg18
g1325
sg19
S'0.93000'
p2959
sg21
S'0.72000'
p2960
sbtp2961
a(g1325
g4
(g5
g6
Ntp2962
Rp2963
(dp2964
g10
g114
sg12
S'1.78000'
p2965
sg14
g393
sg16
S'1.84000'
p2966
sg18
g1325
sg19
S'1.78000'
p2967
sg21
S'1.75000'
p2968
sbtp2969
a(g642
g4
(g5
g6
Ntp2970
Rp2971
(dp2972
g10
g114
sg12
S'1.89000'
p2973
sg14
g393
sg16
S'1.90000'
p2974
sg18
g642
sg19
S'1.89000'
p2975
sg21
S'1.86000'
p2976
sbtp2977
a(g161
g4
(g5
g6
Ntp2978
Rp2979
(dp2980
g10
g114
sg12
S'0.69000'
p2981
sg14
g393
sg16
S'0.70000'
p2982
sg18
g161
sg19
S'0.69000'
p2983
sg21
S'0.54000'
p2984
sbtp2985
a(g58
g4
(g5
g6
Ntp2986
Rp2987
(dp2988
g10
g114
sg12
S'3.50000'
p2989
sg14
g393
sg16
S'3.58000'
p2990
sg18
g58
sg19
S'3.50000'
p2991
sg21
S'3.47000'
p2992
sbtp2993
a(g653
g4
(g5
g6
Ntp2994
Rp2995
(dp2996
g10
g114
sg12
S'1.85000'
p2997
sg14
g393
sg16
S'1.89000'
p2998
sg18
g653
sg19
S'1.85000'
p2999
sg21
S'1.82000'
p3000
sbtp3001
a(g1003
g4
(g5
g6
Ntp3002
Rp3003
(dp3004
g10
g114
sg12
S'1.24000'
p3005
sg14
g393
sg16
S'1.28000'
p3006
sg18
g1003
sg19
S'1.24000'
p3007
sg21
S'1.21000'
p3008
sbtp3009
a(g519
g4
(g5
g6
Ntp3010
Rp3011
(dp3012
g10
g114
sg12
S'1.12000'
p3013
sg14
g393
sg16
S'1.13000'
p3014
sg18
g519
sg19
S'1.12000'
p3015
sg21
S'1.01000'
p3016
sbtp3017
asS'e_n'
p3018
(lp3019
(g58
g4
(g5
g6
Ntp3020
Rp3021
(dp3022
g10
g11
sg12
S'3.06000'
p3023
sg14
g53
sg16
S'3.15000'
p3024
sg18
g58
sg19
S'3.06000'
p3025
sg21
S'3.03000'
p3026
sbtp3027
a(g34
g4
(g5
g6
Ntp3028
Rp3029
(dp3030
g10
g11
sg12
S'1.11000'
p3031
sg14
g53
sg16
S'1.37000'
p3032
sg18
g34
sg19
S'1.11000'
p3033
sg21
S'1.02000'
p3034
sbtp3035
a(g86
g4
(g5
g6
Ntp3036
Rp3037
(dp3038
g10
g11
sg12
S'0.79000'
p3039
sg14
g53
sg16
S'0.86000'
p3040
sg18
g86
sg19
S'0.79000'
p3041
sg21
S'0.75000'
p3042
sbtp3043
a(g1452
g4
(g5
g6
Ntp3044
Rp3045
(dp3046
g10
g11
sg12
S'0.86000'
p3047
sg14
g53
sg16
S'1.01000'
p3048
sg18
g1452
sg19
S'0.86000'
p3049
sg21
S'0.67000'
p3050
sbtp3051
a(g1452
g4
(g5
g6
Ntp3052
Rp3053
(dp3054
g10
g11
sg12
S'1.20000'
p3055
sg14
g53
sg16
S'1.40000'
p3056
sg18
g1452
sg19
S'1.20000'
p3057
sg21
S'1.09000'
p3058
sbtp3059
asS'a_dA'
p3060
(lp3061
(g58
g4
(g5
g6
Ntp3062
Rp3063
(dp3064
g10
g244
sg12
S'4.16000'
p3065
sg14
S'dA'
p3066
sg16
S'4.19000'
p3067
sg18
g58
sg19
S'4.16000'
p3068
sg21
S'4.13000'
p3069
sbtp3070
asS'oS_rA'
p3071
(lp3072
(g58
g4
(g5
g6
Ntp3073
Rp3074
(dp3075
g10
S'oS'
p3076
sg12
S'1.65000'
p3077
sg14
S'rA'
p3078
sg16
S'1.68000'
p3079
sg18
g58
sg19
S'1.65000'
p3080
sg21
S'1.47000'
p3081
sbtp3082
asS'n_s'
p3083
(lp3084
(g86
g4
(g5
g6
Ntp3085
Rp3086
(dp3087
g10
g53
sg12
S'0.86000'
p3088
sg14
g302
sg16
S'1.00000'
p3089
sg18
g86
sg19
S'0.86000'
p3090
sg21
S'0.79000'
p3091
sbtp3092
a(g97
g4
(g5
g6
Ntp3093
Rp3094
(dp3095
g10
g53
sg12
S'0.78000'
p3096
sg14
g302
sg16
S'0.97000'
p3097
sg18
g97
sg19
S'0.78000'
p3098
sg21
S'0.72000'
p3099
sbtp3100
asS'sil_a'
p3101
(lp3102
(g519
g4
(g5
g6
Ntp3103
Rp3104
(dp3105
g10
S'sil'
p3106
sg12
S'0.02000'
p3107
sg14
g244
sg16
S'0.22000'
p3108
sg18
g519
sg19
S'0.02000'
p3109
sg21
S'0.00000'
p3110
sbtp3111
asS'iSC_aS'
p3112
(lp3113
(g86
g4
(g5
g6
Ntp3114
Rp3115
(dp3116
g10
S'iSC'
p3117
sg12
S'1.63000'
p3118
sg14
S'aS'
p3119
sg16
S'1.66000'
p3120
sg18
g86
sg19
S'1.63000'
p3121
sg21
S'1.29000'
p3122
sbtp3123
asS'iS_bA'
p3124
(lp3125
(g151
g4
(g5
g6
Ntp3126
Rp3127
(dp3128
g10
S'iS'
p3129
sg12
S'1.31000'
p3130
sg14
S'bA'
p3131
sg16
S'1.34000'
p3132
sg18
g151
sg19
S'1.31000'
p3133
sg21
S'1.08000'
p3134
sbtp3135
a(g86
g4
(g5
g6
Ntp3136
Rp3137
(dp3138
g10
S'iS'
p3139
sg12
S'0.52000'
p3140
sg14
S'bA'
p3141
sg16
S'0.55000'
p3142
sg18
g86
sg19
S'0.52000'
p3143
sg21
S'0.35000'
p3144
sbtp3145
asS'eS_dA'
p3146
(lp3147
(g229
g4
(g5
g6
Ntp3148
Rp3149
(dp3150
g10
S'eS'
p3151
sg12
S'0.22000'
p3152
sg14
S'dA'
p3153
sg16
S'0.41000'
p3154
sg18
g229
sg19
S'0.22000'
p3155
sg21
S'0.19000'
p3156
sbtp3157
asS'd_iS'
p3158
(lp3159
(g1452
g4
(g5
g6
Ntp3160
Rp3161
(dp3162
g10
g339
sg12
S'1.68000'
p3163
sg14
S'iS'
p3164
sg16
S'1.71000'
p3165
sg18
g1452
sg19
S'1.68000'
p3166
sg21
S'1.40000'
p3167
sbtp3168
a(g209
g4
(g5
g6
Ntp3169
Rp3170
(dp3171
g10
g339
sg12
S'1.21000'
p3172
sg14
S'iS'
p3173
sg16
S'1.30000'
p3174
sg18
g209
sg19
S'1.21000'
p3175
sg21
S'0.80000'
p3176
sbtp3177
asS'x_o'
p3178
(lp3179
(g1325
g4
(g5
g6
Ntp3180
Rp3181
(dp3182
g10
S'x'
p3183
sg12
S'1.48000'
p3184
sg14
g290
sg16
S'1.75000'
p3185
sg18
g1325
sg19
S'1.48000'
p3186
sg21
S'1.45000'
p3187
sbtp3188
asS'l_eS'
p3189
(lp3190
(g121
g4
(g5
g6
Ntp3191
Rp3192
(dp3193
g10
g687
sg12
S'1.43000'
p3194
sg14
S'eS'
p3195
sg16
S'1.60000'
p3196
sg18
g121
sg19
S'1.43000'
p3197
sg21
S'1.33000'
p3198
sbtp3199
a(g455
g4
(g5
g6
Ntp3200
Rp3201
(dp3202
g10
g687
sg12
S'1.51000'
p3203
sg14
S'eS'
p3204
sg16
S'1.61000'
p3205
sg18
g455
sg19
S'1.51000'
p3206
sg21
S'1.39000'
p3207
sbtp3208
asS'll_o'
p3209
(lp3210
(g86
g4
(g5
g6
Ntp3211
Rp3212
(dp3213
g10
S'll'
p3214
sg12
S'0.24000'
p3215
sg14
g290
sg16
S'0.30000'
p3216
sg18
g86
sg19
S'0.24000'
p3217
sg21
S'0.21000'
p3218
sbtp3219
a(g97
g4
(g5
g6
Ntp3220
Rp3221
(dp3222
g10
S'll'
p3223
sg12
S'0.13000'
p3224
sg14
g290
sg16
S'0.21000'
p3225
sg18
g97
sg19
S'0.13000'
p3226
sg21
S'0.10000'
p3227
sbtp3228
asS'uSC_eS'
p3229
(lp3230
(g354
g4
(g5
g6
Ntp3231
Rp3232
(dp3233
g10
S'uSC'
p3234
sg12
S'0.23000'
p3235
sg14
S'eS'
p3236
sg16
S'0.26000'
p3237
sg18
g354
sg19
S'0.23000'
p3238
sg21
S'0.20000'
p3239
sbtp3240
a(g141
g4
(g5
g6
Ntp3241
Rp3242
(dp3243
g10
S'uSC'
p3244
sg12
S'0.26000'
p3245
sg14
S'eS'
p3246
sg16
S'0.29000'
p3247
sg18
g141
sg19
S'0.26000'
p3248
sg21
S'0.23000'
p3249
sbtp3250
a(g209
g4
(g5
g6
Ntp3251
Rp3252
(dp3253
g10
S'uSC'
p3254
sg12
S'0.40000'
p3255
sg14
S'eS'
p3256
sg16
S'0.46000'
p3257
sg18
g209
sg19
S'0.40000'
p3258
sg21
S'0.11000'
p3259
sbtp3260
asS'o_sil'
p3261
(lp3262
(g540
g4
(g5
g6
Ntp3263
Rp3264
(dp3265
g10
g290
sg12
S'1.73000'
p3266
sg14
S'sil'
p3267
sg16
S'1.75000'
p3268
sg18
g540
sg19
S'1.73000'
p3269
sg21
S'1.65000'
p3270
sbtp3271
a(g947
g4
(g5
g6
Ntp3272
Rp3273
(dp3274
g10
g290
sg12
S'1.69000'
p3275
sg14
S'sil'
p3276
sg16
S'1.71000'
p3277
sg18
g947
sg19
S'1.69000'
p3278
sg21
S'1.45000'
p3279
sbtp3280
a(g86
g4
(g5
g6
Ntp3281
Rp3282
(dp3283
g10
g290
sg12
S'1.78000'
p3284
sg14
S'sil'
p3285
sg16
S'1.80000'
p3286
sg18
g86
sg19
S'1.78000'
p3287
sg21
S'1.74000'
p3288
sbtp3289
a(g2269
g4
(g5
g6
Ntp3290
Rp3291
(dp3292
g10
g290
sg12
S'1.18000'
p3293
sg14
S'sil'
p3294
sg16
S'1.20000'
p3295
sg18
g2269
sg19
S'1.18000'
p3296
sg21
S'1.15000'
p3297
sbtp3298
asS'h_s'
p3299
(lp3300
(g58
g4
(g5
g6
Ntp3301
Rp3302
(dp3303
g10
g114
sg12
S'4.36000'
p3304
sg14
g302
sg16
S'4.41000'
p3305
sg18
g58
sg19
S'4.36000'
p3306
sg21
S'4.24000'
p3307
sbtp3308
asS's_oS'
p3309
(lp3310
(g47
g4
(g5
g6
Ntp3311
Rp3312
(dp3313
g10
g302
sg12
S'0.54000'
p3314
sg14
S'oS'
p3315
sg16
S'0.61000'
p3316
sg18
g47
sg19
S'0.54000'
p3317
sg21
S'0.41000'
p3318
sbtp3319
a(g286
g4
(g5
g6
Ntp3320
Rp3321
(dp3322
g10
g302
sg12
S'0.56000'
p3323
sg14
S'oS'
p3324
sg16
S'0.63000'
p3325
sg18
g286
sg19
S'0.56000'
p3326
sg21
S'0.44000'
p3327
sbtp3328
a(g947
g4
(g5
g6
Ntp3329
Rp3330
(dp3331
g10
g302
sg12
S'0.21000'
p3332
sg14
S'oS'
p3333
sg16
S'0.29000'
p3334
sg18
g947
sg19
S'0.21000'
p3335
sg21
S'0.10000'
p3336
sbtp3337
a(g389
g4
(g5
g6
Ntp3338
Rp3339
(dp3340
g10
g302
sg12
S'0.45000'
p3341
sg14
S'oS'
p3342
sg16
S'0.52000'
p3343
sg18
g389
sg19
S'0.45000'
p3344
sg21
S'0.31000'
p3345
sbtp3346
a(g58
g4
(g5
g6
Ntp3347
Rp3348
(dp3349
g10
g302
sg12
S'2.83000'
p3350
sg14
S'oS'
p3351
sg16
S'2.86000'
p3352
sg18
g58
sg19
S'2.83000'
p3353
sg21
S'2.77000'
p3354
sbtp3355
asS'iS_a'
p3356
(lp3357
(g209
g4
(g5
g6
Ntp3358
Rp3359
(dp3360
g10
S'iS'
p3361
sg12
S'1.30000'
p3362
sg14
g244
sg16
S'1.50000'
p3363
sg18
g209
sg19
S'1.30000'
p3364
sg21
S'1.21000'
p3365
sbtp3366
asS't_oS'
p3367
(lp3368
(g540
g4
(g5
g6
Ntp3369
Rp3370
(dp3371
g10
g1241
sg12
S'0.62000'
p3372
sg14
S'oS'
p3373
sg16
S'0.68000'
p3374
sg18
g540
sg19
S'0.62000'
p3375
sg21
S'0.57000'
p3376
sbtp3377
a(g58
g4
(g5
g6
Ntp3378
Rp3379
(dp3380
g10
g1241
sg12
S'2.53000'
p3381
sg14
S'oS'
p3382
sg16
S'2.56000'
p3383
sg18
g58
sg19
S'2.53000'
p3384
sg21
S'2.40000'
p3385
sbtp3386
asS'p_i'
p3387
(lp3388
(g286
g4
(g5
g6
Ntp3389
Rp3390
(dp3391
g10
g15
sg12
S'1.16000'
p3392
sg14
g612
sg16
S'1.50000'
p3393
sg18
g286
sg19
S'1.16000'
p3394
sg21
S'0.95000'
p3395
sbtp3396
a(g432
g4
(g5
g6
Ntp3397
Rp3398
(dp3399
g10
g15
sg12
S'1.13000'
p3400
sg14
g612
sg16
S'1.17000'
p3401
sg18
g432
sg19
S'1.13000'
p3402
sg21
S'0.93000'
p3403
sbtp3404
asS'm_aS'
p3405
(lp3406
(g444
g4
(g5
g6
Ntp3407
Rp3408
(dp3409
g10
g610
sg12
S'1.80000'
p3410
sg14
S'aS'
p3411
sg16
S'1.92000'
p3412
sg18
g444
sg19
S'1.80000'
p3413
sg21
S'1.64000'
p3414
sbtp3415
a(g389
g4
(g5
g6
Ntp3416
Rp3417
(dp3418
g10
g610
sg12
S'1.26000'
p3419
sg14
S'aS'
p3420
sg16
S'1.37000'
p3421
sg18
g389
sg19
S'1.26000'
p3422
sg21
S'1.12000'
p3423
sbtp3424
a(g311
g4
(g5
g6
Ntp3425
Rp3426
(dp3427
g10
g610
sg12
S'0.63000'
p3428
sg14
S'aS'
p3429
sg16
S'0.76000'
p3430
sg18
g311
sg19
S'0.63000'
p3431
sg21
S'0.47000'
p3432
sbtp3433
asS'aS_t'
p3434
(lp3435
(g444
g4
(g5
g6
Ntp3436
Rp3437
(dp3438
g10
S'aS'
p3439
sg12
S'1.92000'
p3440
sg14
g1241
sg16
S'2.03000'
p3441
sg18
g444
sg19
S'1.92000'
p3442
sg21
S'1.80000'
p3443
sbtp3444
asS'iS_sil'
p3445
(lp3446
(g1452
g4
(g5
g6
Ntp3447
Rp3448
(dp3449
g10
S'iS'
p3450
sg12
S'1.71000'
p3451
sg14
S'sil'
p3452
sg16
S'1.73000'
p3453
sg18
g1452
sg19
S'1.71000'
p3454
sg21
S'1.68000'
p3455
sbtp3456
a(g97
g4
(g5
g6
Ntp3457
Rp3458
(dp3459
g10
S'iS'
p3460
sg12
S'1.68000'
p3461
sg14
S'sil'
p3462
sg16
S'1.70000'
p3463
sg18
g97
sg19
S'1.68000'
p3464
sg21
S'1.46000'
p3465
sbtp3466
asS'uSC_aS'
p3467
(lp3468
(g75
g4
(g5
g6
Ntp3469
Rp3470
(dp3471
g10
S'uSC'
p3472
sg12
S'0.53000'
p3473
sg14
S'aS'
p3474
sg16
S'0.56000'
p3475
sg18
g75
sg19
S'0.53000'
p3476
sg21
S'0.45000'
p3477
sbtp3478
asS'o_h'
p3479
(lp3480
(g1325
g4
(g5
g6
Ntp3481
Rp3482
(dp3483
g10
g290
sg12
S'1.75000'
p3484
sg14
g114
sg16
S'1.78000'
p3485
sg18
g1325
sg19
S'1.75000'
p3486
sg21
S'1.48000'
p3487
sbtp3488
a(g642
g4
(g5
g6
Ntp3489
Rp3490
(dp3491
g10
g290
sg12
S'1.86000'
p3492
sg14
g114
sg16
S'1.89000'
p3493
sg18
g642
sg19
S'1.86000'
p3494
sg21
S'1.80000'
p3495
sbtp3496
a(g58
g4
(g5
g6
Ntp3497
Rp3498
(dp3499
g10
g290
sg12
S'3.47000'
p3500
sg14
g114
sg16
S'3.50000'
p3501
sg18
g58
sg19
S'3.47000'
p3502
sg21
S'3.42000'
p3503
sbtp3504
a(g58
g4
(g5
g6
Ntp3505
Rp3506
(dp3507
g10
g290
sg12
S'3.84000'
p3508
sg14
g114
sg16
S'3.87000'
p3509
sg18
g58
sg19
S'3.84000'
p3510
sg21
S'3.81000'
p3511
sbtp3512
a(g58
g4
(g5
g6
Ntp3513
Rp3514
(dp3515
g10
g290
sg12
S'4.24000'
p3516
sg14
g114
sg16
S'4.36000'
p3517
sg18
g58
sg19
S'4.24000'
p3518
sg21
S'4.19000'
p3519
sbtp3520
a(g58
g4
(g5
g6
Ntp3521
Rp3522
(dp3523
g10
g290
sg12
S'5.08000'
p3524
sg14
g114
sg16
S'5.15000'
p3525
sg18
g58
sg19
S'5.08000'
p3526
sg21
S'5.05000'
p3527
sbtp3528
a(g190
g4
(g5
g6
Ntp3529
Rp3530
(dp3531
g10
g290
sg12
S'1.93000'
p3532
sg14
g114
sg16
S'1.96000'
p3533
sg18
g190
sg19
S'1.93000'
p3534
sg21
S'1.89000'
p3535
sbtp3536
a(g653
g4
(g5
g6
Ntp3537
Rp3538
(dp3539
g10
g290
sg12
S'1.82000'
p3540
sg14
g114
sg16
S'1.85000'
p3541
sg18
g653
sg19
S'1.82000'
p3542
sg21
S'1.79000'
p3543
sbtp3544
a(g1003
g4
(g5
g6
Ntp3545
Rp3546
(dp3547
g10
g290
sg12
S'0.26000'
p3548
sg14
g114
sg16
S'0.35000'
p3549
sg18
g1003
sg19
S'0.26000'
p3550
sg21
S'0.15000'
p3551
sbtp3552
a(g1003
g4
(g5
g6
Ntp3553
Rp3554
(dp3555
g10
g290
sg12
S'1.21000'
p3556
sg14
g114
sg16
S'1.24000'
p3557
sg18
g1003
sg19
S'1.21000'
p3558
sg21
S'0.86000'
p3559
sbtp3560
a(g209
g4
(g5
g6
Ntp3561
Rp3562
(dp3563
g10
g290
sg12
S'0.72000'
p3564
sg14
g114
sg16
S'0.80000'
p3565
sg18
g209
sg19
S'0.72000'
p3566
sg21
S'0.67000'
p3567
sbtp3568
a(g219
g4
(g5
g6
Ntp3569
Rp3570
(dp3571
g10
g290
sg12
S'1.01000'
p3572
sg14
g114
sg16
S'1.07000'
p3573
sg18
g219
sg19
S'1.01000'
p3574
sg21
S'0.97000'
p3575
sbtp3576
asS'b_iSC'
p3577
(lp3578
(g34
g4
(g5
g6
Ntp3579
Rp3580
(dp3581
g10
g38
sg12
S'0.80000'
p3582
sg14
S'iSC'
p3583
sg16
S'1.02000'
p3584
sg18
g34
sg19
S'0.80000'
p3585
sg21
S'0.55000'
p3586
sbtp3587
asS'b_eS'
p3588
(lp3589
(g58
g4
(g5
g6
Ntp3590
Rp3591
(dp3592
g10
g38
sg12
S'0.10000'
p3593
sg14
S'eS'
p3594
sg16
S'0.13000'
p3595
sg18
g58
sg19
S'0.10000'
p3596
sg21
S'0.06000'
p3597
sbtp3598
a(g653
g4
(g5
g6
Ntp3599
Rp3600
(dp3601
g10
g38
sg12
S'0.88000'
p3602
sg14
S'eS'
p3603
sg16
S'0.98000'
p3604
sg18
g653
sg19
S'0.88000'
p3605
sg21
S'0.85000'
p3606
sbtp3607
a(g1003
g4
(g5
g6
Ntp3608
Rp3609
(dp3610
g10
g38
sg12
S'0.52000'
p3611
sg14
S'eS'
p3612
sg16
S'0.64000'
p3613
sg18
g1003
sg19
S'0.52000'
p3614
sg21
S'0.35000'
p3615
sbtp3616
asS'h_k'
p3617
(lp3618
(g58
g4
(g5
g6
Ntp3619
Rp3620
(dp3621
g10
g114
sg12
S'0.81000'
p3622
sg14
g807
sg16
S'0.90000'
p3623
sg18
g58
sg19
S'0.81000'
p3624
sg21
S'0.78000'
p3625
sbtp3626
asS'ch_e'
p3627
(lp3628
(g354
g4
(g5
g6
Ntp3629
Rp3630
(dp3631
g10
S'ch'
p3632
sg12
S'1.16000'
p3633
sg14
g11
sg16
S'1.27000'
p3634
sg18
g354
sg19
S'1.16000'
p3635
sg21
S'1.13000'
p3636
sbtp3637
asS'b_l'
p3638
(lp3639
(g110
g4
(g5
g6
Ntp3640
Rp3641
(dp3642
g10
g38
sg12
S'1.36000'
p3643
sg14
g687
sg16
S'1.47000'
p3644
sg18
g110
sg19
S'1.36000'
p3645
sg21
S'1.18000'
p3646
sbtp3647
a(g121
g4
(g5
g6
Ntp3648
Rp3649
(dp3650
g10
g38
sg12
S'0.32000'
p3651
sg14
g687
sg16
S'0.35000'
p3652
sg18
g121
sg19
S'0.32000'
p3653
sg21
S'0.29000'
p3654
sbtp3655
a(g455
g4
(g5
g6
Ntp3656
Rp3657
(dp3658
g10
g38
sg12
S'1.39000'
p3659
sg14
g687
sg16
S'1.51000'
p3660
sg18
g455
sg19
S'1.39000'
p3661
sg21
S'1.36000'
p3662
sbtp3663
a(g377
g4
(g5
g6
Ntp3664
Rp3665
(dp3666
g10
g38
sg12
S'0.26000'
p3667
sg14
g687
sg16
S'0.37000'
p3668
sg18
g377
sg19
S'0.26000'
p3669
sg21
S'0.15000'
p3670
sbtp3671
asS'sp_d'
p3672
(lp3673
(g1474
g4
(g5
g6
Ntp3674
Rp3675
(dp3676
g10
g393
sg12
S'1.14000'
p3677
sg14
g339
sg16
S'1.39000'
p3678
sg18
g1474
sg19
S'1.14000'
p3679
sg21
S'1.08000'
p3680
sbtp3681
asS't_u'
p3682
(lp3683
(g75
g4
(g5
g6
Ntp3684
Rp3685
(dp3686
g10
g1241
sg12
S'0.92000'
p3687
sg14
g51
sg16
S'0.99000'
p3688
sg18
g75
sg19
S'0.92000'
p3689
sg21
S'0.82000'
p3690
sbtp3691
asS'iS_rA'
p3692
(lp3693
(g58
g4
(g5
g6
Ntp3694
Rp3695
(dp3696
g10
S'iS'
p3697
sg12
S'1.71000'
p3698
sg14
S'rA'
p3699
sg16
S'1.74000'
p3700
sg18
g58
sg19
S'1.71000'
p3701
sg21
S'1.68000'
p3702
sbtp3703
asS't_eS'
p3704
(lp3705
(g947
g4
(g5
g6
Ntp3706
Rp3707
(dp3708
g10
g1241
sg12
S'1.18000'
p3709
sg14
S'eS'
p3710
sg16
S'1.37000'
p3711
sg18
g947
sg19
S'1.18000'
p3712
sg21
S'1.02000'
p3713
sbtp3714
a(g1325
g4
(g5
g6
Ntp3715
Rp3716
(dp3717
g10
g1241
sg12
S'0.11000'
p3718
sg14
S'eS'
p3719
sg16
S'0.14000'
p3720
sg18
g1325
sg19
S'0.11000'
p3721
sg21
S'0.08000'
p3722
sbtp3723
a(g642
g4
(g5
g6
Ntp3724
Rp3725
(dp3726
g10
g1241
sg12
S'0.08000'
p3727
sg14
S'eS'
p3728
sg16
S'0.12000'
p3729
sg18
g642
sg19
S'0.08000'
p3730
sg21
S'0.02000'
p3731
sbtp3732
a(g190
g4
(g5
g6
Ntp3733
Rp3734
(dp3735
g10
g1241
sg12
S'0.11000'
p3736
sg14
S'eS'
p3737
sg16
S'0.14000'
p3738
sg18
g190
sg19
S'0.11000'
p3739
sg21
S'0.08000'
p3740
sbtp3741
a(g653
g4
(g5
g6
Ntp3742
Rp3743
(dp3744
g10
g1241
sg12
S'0.08000'
p3745
sg14
S'eS'
p3746
sg16
S'0.13000'
p3747
sg18
g653
sg19
S'0.08000'
p3748
sg21
S'0.02000'
p3749
sbtp3750
asS'o_n'
p3751
(lp3752
(g97
g4
(g5
g6
Ntp3753
Rp3754
(dp3755
g10
g290
sg12
S'0.21000'
p3756
sg14
g53
sg16
S'0.25000'
p3757
sg18
g97
sg19
S'0.21000'
p3758
sg21
S'0.13000'
p3759
sbtp3760
asS'b_r'
p3761
(lp3762
(g58
g4
(g5
g6
Ntp3763
Rp3764
(dp3765
g10
g38
sg12
S'2.92000'
p3766
sg14
g572
sg16
S'3.00000'
p3767
sg18
g58
sg19
S'2.92000'
p3768
sg21
S'2.89000'
p3769
sbtp3770
a(g75
g4
(g5
g6
Ntp3771
Rp3772
(dp3773
g10
g38
sg12
S'1.50000'
p3774
sg14
g572
sg16
S'1.59000'
p3775
sg18
g75
sg19
S'1.50000'
p3776
sg21
S'1.42000'
p3777
sbtp3778
asS'sp_g'
p3779
(lp3780
(g161
g4
(g5
g6
Ntp3781
Rp3782
(dp3783
g10
g393
sg12
S'0.70000'
p3784
sg14
g448
sg16
S'0.82000'
p3785
sg18
g161
sg19
S'0.70000'
p3786
sg21
S'0.69000'
p3787
sbtp3788
asS'eS_rA'
p3789
(lp3790
(g947
g4
(g5
g6
Ntp3791
Rp3792
(dp3793
g10
S'eS'
p3794
sg12
S'1.37000'
p3795
sg14
S'rA'
p3796
sg16
S'1.45000'
p3797
sg18
g947
sg19
S'1.37000'
p3798
sg21
S'1.18000'
p3799
sbtp3800
asS'l_t'
p3801
(lp3802
(g947
g4
(g5
g6
Ntp3803
Rp3804
(dp3805
g10
g687
sg12
S'1.02000'
p3806
sg14
g1241
sg16
S'1.18000'
p3807
sg18
g947
sg19
S'1.02000'
p3808
sg21
S'0.88000'
p3809
sbtp3810
asS'n_rr'
p3811
(lp3812
(g58
g4
(g5
g6
Ntp3813
Rp3814
(dp3815
g10
g53
sg12
S'0.42000'
p3816
sg14
S'rr'
p3817
sg16
S'0.45000'
p3818
sg18
g58
sg19
S'0.42000'
p3819
sg21
S'0.31000'
p3820
sbtp3821
asS'a_sil'
p3822
(lp3823
(g444
g4
(g5
g6
Ntp3824
Rp3825
(dp3826
g10
g244
sg12
S'2.28000'
p3827
sg14
S'sil'
p3828
sg16
S'2.30000'
p3829
sg18
g444
sg19
S'2.28000'
p3830
sg21
S'2.15000'
p3831
sbtp3832
a(g455
g4
(g5
g6
Ntp3833
Rp3834
(dp3835
g10
g244
sg12
S'1.93000'
p3836
sg14
S'sil'
p3837
sg16
S'1.95000'
p3838
sg18
g455
sg19
S'1.93000'
p3839
sg21
S'1.76000'
p3840
sbtp3841
a(g367
g4
(g5
g6
Ntp3842
Rp3843
(dp3844
g10
g244
sg12
S'2.28000'
p3845
sg14
S'sil'
p3846
sg16
S'2.36000'
p3847
sg18
g367
sg19
S'2.28000'
p3848
sg21
S'2.22000'
p3849
sbtp3850
a(g519
g4
(g5
g6
Ntp3851
Rp3852
(dp3853
g10
g244
sg12
S'1.88000'
p3854
sg14
S'sil'
p3855
sg16
S'1.90000'
p3856
sg18
g519
sg19
S'1.88000'
p3857
sg21
S'1.68000'
p3858
sbtp3859
asS'eS_o'
p3860
(lp3861
(g58
g4
(g5
g6
Ntp3862
Rp3863
(dp3864
g10
S'eS'
p3865
sg12
S'0.13000'
p3866
sg14
g290
sg16
S'0.28000'
p3867
sg18
g58
sg19
S'0.13000'
p3868
sg21
S'0.10000'
p3869
sbtp3870
a(g3
g4
(g5
g6
Ntp3871
Rp3872
(dp3873
g10
S'eS'
p3874
sg12
S'0.92000'
p3875
sg14
g290
sg16
S'0.95000'
p3876
sg18
g3
sg19
S'0.92000'
p3877
sg21
S'0.89000'
p3878
sbtp3879
asS'eS_n'
p3880
(lp3881
(g354
g4
(g5
g6
Ntp3882
Rp3883
(dp3884
g10
S'eS'
p3885
sg12
S'0.26000'
p3886
sg14
g53
sg16
S'0.34000'
p3887
sg18
g354
sg19
S'0.26000'
p3888
sg21
S'0.23000'
p3889
sbtp3890
a(g141
g4
(g5
g6
Ntp3891
Rp3892
(dp3893
g10
S'eS'
p3894
sg12
S'0.29000'
p3895
sg14
g53
sg16
S'0.35000'
p3896
sg18
g141
sg19
S'0.29000'
p3897
sg21
S'0.26000'
p3898
sbtp3899
a(g1325
g4
(g5
g6
Ntp3900
Rp3901
(dp3902
g10
S'eS'
p3903
sg12
S'0.14000'
p3904
sg14
g53
sg16
S'0.17000'
p3905
sg18
g1325
sg19
S'0.14000'
p3906
sg21
S'0.11000'
p3907
sbtp3908
a(g642
g4
(g5
g6
Ntp3909
Rp3910
(dp3911
g10
S'eS'
p3912
sg12
S'0.12000'
p3913
sg14
g53
sg16
S'0.15000'
p3914
sg18
g642
sg19
S'0.12000'
p3915
sg21
S'0.08000'
p3916
sbtp3917
a(g190
g4
(g5
g6
Ntp3918
Rp3919
(dp3920
g10
S'eS'
p3921
sg12
S'0.14000'
p3922
sg14
g53
sg16
S'0.17000'
p3923
sg18
g190
sg19
S'0.14000'
p3924
sg21
S'0.11000'
p3925
sbtp3926
a(g190
g4
(g5
g6
Ntp3927
Rp3928
(dp3929
g10
S'eS'
p3930
sg12
S'0.78000'
p3931
sg14
g53
sg16
S'0.91000'
p3932
sg18
g190
sg19
S'0.78000'
p3933
sg21
S'0.68000'
p3934
sbtp3935
a(g653
g4
(g5
g6
Ntp3936
Rp3937
(dp3938
g10
S'eS'
p3939
sg12
S'0.13000'
p3940
sg14
g53
sg16
S'0.16000'
p3941
sg18
g653
sg19
S'0.13000'
p3942
sg21
S'0.08000'
p3943
sbtp3944
a(g209
g4
(g5
g6
Ntp3945
Rp3946
(dp3947
g10
S'eS'
p3948
sg12
S'0.46000'
p3949
sg14
g53
sg16
S'0.67000'
p3950
sg18
g209
sg19
S'0.46000'
p3951
sg21
S'0.40000'
p3952
sbtp3953
a(g229
g4
(g5
g6
Ntp3954
Rp3955
(dp3956
g10
S'eS'
p3957
sg12
S'1.17000'
p3958
sg14
g53
sg16
S'1.25000'
p3959
sg18
g229
sg19
S'1.17000'
p3960
sg21
S'1.07000'
p3961
sbtp3962
a(g97
g4
(g5
g6
Ntp3963
Rp3964
(dp3965
g10
S'eS'
p3966
sg12
S'0.72000'
p3967
sg14
g53
sg16
S'0.78000'
p3968
sg18
g97
sg19
S'0.72000'
p3969
sg21
S'0.69000'
p3970
sbtp3971
asS'k_u'
p3972
(lp3973
(g47
g4
(g5
g6
Ntp3974
Rp3975
(dp3976
g10
g807
sg12
S'1.32000'
p3977
sg14
g51
sg16
S'1.35000'
p3978
sg18
g47
sg19
S'1.32000'
p3979
sg21
S'1.29000'
p3980
sbtp3981
a(g3
g4
(g5
g6
Ntp3982
Rp3983
(dp3984
g10
g807
sg12
S'1.03000'
p3985
sg14
g51
sg16
S'1.42000'
p3986
sg18
g3
sg19
S'1.03000'
p3987
sg21
S'0.95000'
p3988
sbtp3989
a(g3
g4
(g5
g6
Ntp3990
Rp3991
(dp3992
g10
g807
sg12
S'1.45000'
p3993
sg14
g51
sg16
S'1.71000'
p3994
sg18
g3
sg19
S'1.45000'
p3995
sg21
S'1.42000'
p3996
sbtp3997
asS'eS_h'
p3998
(lp3999
(g121
g4
(g5
g6
Ntp4000
Rp4001
(dp4002
g10
S'eS'
p4003
sg12
S'1.60000'
p4004
sg14
g114
sg16
S'1.96000'
p4005
sg18
g121
sg19
S'1.60000'
p4006
sg21
S'1.43000'
p4007
sbtp4008
a(g377
g4
(g5
g6
Ntp4009
Rp4010
(dp4011
g10
S'eS'
p4012
sg12
S'0.75000'
p4013
sg14
g114
sg16
S'0.91000'
p4014
sg18
g377
sg19
S'0.75000'
p4015
sg21
S'0.65000'
p4016
sbtp4017
asS'eS_rr'
p4018
(lp4019
(g58
g4
(g5
g6
Ntp4020
Rp4021
(dp4022
g10
S'eS'
p4023
sg12
S'4.46000'
p4024
sg14
S'rr'
p4025
sg16
S'4.96000'
p4026
sg18
g58
sg19
S'4.46000'
p4027
sg21
S'4.41000'
p4028
sbtp4029
asS'k_i'
p4030
(lp4031
(g389
g4
(g5
g6
Ntp4032
Rp4033
(dp4034
g10
g807
sg12
S'1.40000'
p4035
sg14
g612
sg16
S'1.57000'
p4036
sg18
g389
sg19
S'1.40000'
p4037
sg21
S'1.37000'
p4038
sbtp4039
asS'eS_t'
p4040
(lp4041
(g465
g4
(g5
g6
Ntp4042
Rp4043
(dp4044
g10
S'eS'
p4045
sg12
S'0.17000'
p4046
sg14
g1241
sg16
S'0.20000'
p4047
sg18
g465
sg19
S'0.17000'
p4048
sg21
S'0.14000'
p4049
sbtp4050
asS'l_a'
p4051
(lp4052
(g110
g4
(g5
g6
Ntp4053
Rp4054
(dp4055
g10
g687
sg12
S'1.47000'
p4056
sg14
g244
sg16
S'1.61000'
p4057
sg18
g110
sg19
S'1.47000'
p4058
sg21
S'1.36000'
p4059
sbtp4060
a(g444
g4
(g5
g6
Ntp4061
Rp4062
(dp4063
g10
g687
sg12
S'0.92000'
p4064
sg14
g244
sg16
S'1.08000'
p4065
sg18
g444
sg19
S'0.92000'
p4066
sg21
S'0.80000'
p4067
sbtp4068
a(g567
g4
(g5
g6
Ntp4069
Rp4070
(dp4071
g10
g687
sg12
S'1.10000'
p4072
sg14
g244
sg16
S'1.46000'
p4073
sg18
g567
sg19
S'1.10000'
p4074
sg21
S'1.02000'
p4075
sbtp4076
a(g519
g4
(g5
g6
Ntp4077
Rp4078
(dp4079
g10
g687
sg12
S'1.23000'
p4080
sg14
g244
sg16
S'1.31000'
p4081
sg18
g519
sg19
S'1.23000'
p4082
sg21
S'1.13000'
p4083
sbtp4084
asS'sil_aS'
p4085
(lp4086
(g629
g4
(g5
g6
Ntp4087
Rp4088
(dp4089
g10
S'sil'
p4090
sg12
S'0.14000'
p4091
sg14
S'aS'
p4092
sg16
S'0.20000'
p4093
sg18
g629
sg19
S'0.14000'
p4094
sg21
S'0.00000'
p4095
sbtp4096
a(g377
g4
(g5
g6
Ntp4097
Rp4098
(dp4099
g10
S'sil'
p4100
sg12
S'0.10000'
p4101
sg14
S'aS'
p4102
sg16
S'0.15000'
p4103
sg18
g377
sg19
S'0.10000'
p4104
sg21
S'0.00000'
p4105
sbtp4106
a(g311
g4
(g5
g6
Ntp4107
Rp4108
(dp4109
g10
S'sil'
p4110
sg12
S'0.15000'
p4111
sg14
S'aS'
p4112
sg16
S'0.21000'
p4113
sg18
g311
sg19
S'0.15000'
p4114
sg21
S'0.00000'
p4115
sbtp4116
a(g2269
g4
(g5
g6
Ntp4117
Rp4118
(dp4119
g10
S'sil'
p4120
sg12
S'0.04000'
p4121
sg14
S'aS'
p4122
sg16
S'0.22000'
p4123
sg18
g2269
sg19
S'0.04000'
p4124
sg21
S'0.00000'
p4125
sbtp4126
asS'eS_s'
p4127
(lp4128
(g432
g4
(g5
g6
Ntp4129
Rp4130
(dp4131
g10
S'eS'
p4132
sg12
S'0.17000'
p4133
sg14
g302
sg16
S'0.34000'
p4134
sg18
g432
sg19
S'0.17000'
p4135
sg21
S'0.12000'
p4136
sbtp4137
a(g367
g4
(g5
g6
Ntp4138
Rp4139
(dp4140
g10
S'eS'
p4141
sg12
S'1.31000'
p4142
sg14
g302
sg16
S'1.50000'
p4143
sg18
g367
sg19
S'1.31000'
p4144
sg21
S'1.19000'
p4145
sbtp4146
asS'i_sp'
p4147
(lp4148
(g389
g4
(g5
g6
Ntp4149
Rp4150
(dp4151
g10
g612
sg12
S'0.79000'
p4152
sg14
g393
sg16
S'0.84000'
p4153
sg18
g389
sg19
S'0.79000'
p4154
sg21
S'0.52000'
p4155
sbtp4156
a(g1474
g4
(g5
g6
Ntp4157
Rp4158
(dp4159
g10
g612
sg12
S'1.08000'
p4160
sg14
g393
sg16
S'1.14000'
p4161
sg18
g1474
sg19
S'1.08000'
p4162
sg21
S'0.39000'
p4163
sbtp4164
asS'k_a'
p4165
(lp4166
(g540
g4
(g5
g6
Ntp4167
Rp4168
(dp4169
g10
g807
sg12
S'0.88000'
p4170
sg14
g244
sg16
S'1.11000'
p4171
sg18
g540
sg19
S'0.88000'
p4172
sg21
S'0.85000'
p4173
sbtp4174
a(g444
g4
(g5
g6
Ntp4175
Rp4176
(dp4177
g10
g807
sg12
S'2.15000'
p4178
sg14
g244
sg16
S'2.28000'
p4179
sg18
g444
sg19
S'2.15000'
p4180
sg21
S'2.12000'
p4181
sbtp4182
asS'eS_eS'
p4183
(lp4184
(g229
g4
(g5
g6
Ntp4185
Rp4186
(dp4187
g10
S'eS'
p4188
sg12
S'0.19000'
p4189
sg14
S'eS'
p4190
sg16
S'0.22000'
p4191
sg18
g229
sg19
S'0.19000'
p4192
sg21
S'0.16000'
p4193
sbtp4194
asS'k_e'
p4195
(lp4196
(g58
g4
(g5
g6
Ntp4197
Rp4198
(dp4199
g10
g807
sg12
S'2.64000'
p4200
sg14
g11
sg16
S'2.68000'
p4201
sg18
g58
sg19
S'2.64000'
p4202
sg21
S'2.56000'
p4203
sbtp4204
a(g34
g4
(g5
g6
Ntp4205
Rp4206
(dp4207
g10
g807
sg12
S'0.16000'
p4208
sg14
g11
sg16
S'0.19000'
p4209
sg18
g34
sg19
S'0.16000'
p4210
sg21
S'0.13000'
p4211
sbtp4212
asS'l_o'
p4213
(lp4214
(g121
g4
(g5
g6
Ntp4215
Rp4216
(dp4217
g10
g687
sg12
S'0.35000'
p4218
sg14
g290
sg16
S'0.39000'
p4219
sg18
g121
sg19
S'0.35000'
p4220
sg21
S'0.32000'
p4221
sbtp4222
a(g286
g4
(g5
g6
Ntp4223
Rp4224
(dp4225
g10
g687
sg12
S'0.66000'
p4226
sg14
g290
sg16
S'0.72000'
p4227
sg18
g286
sg19
S'0.66000'
p4228
sg21
S'0.63000'
p4229
sbtp4230
a(g58
g4
(g5
g6
Ntp4231
Rp4232
(dp4233
g10
g687
sg12
S'3.42000'
p4234
sg14
g290
sg16
S'3.47000'
p4235
sg18
g58
sg19
S'3.42000'
p4236
sg21
S'3.15000'
p4237
sbtp4238
a(g377
g4
(g5
g6
Ntp4239
Rp4240
(dp4241
g10
g687
sg12
S'0.37000'
p4242
sg14
g290
sg16
S'0.65000'
p4243
sg18
g377
sg19
S'0.37000'
p4244
sg21
S'0.26000'
p4245
sbtp4246
a(g219
g4
(g5
g6
Ntp4247
Rp4248
(dp4249
g10
g687
sg12
S'0.97000'
p4250
sg14
g290
sg16
S'1.01000'
p4251
sg18
g219
sg19
S'0.97000'
p4252
sg21
S'0.70000'
p4253
sbtp4254
asS'bA_o'
p4255
(lp4256
(g86
g4
(g5
g6
Ntp4257
Rp4258
(dp4259
g10
S'bA'
p4260
sg12
S'0.55000'
p4261
sg14
g290
sg16
S'0.75000'
p4262
sg18
g86
sg19
S'0.55000'
p4263
sg21
S'0.52000'
p4264
sbtp4265
asS'i_o'
p4266
(lp4267
(g432
g4
(g5
g6
Ntp4268
Rp4269
(dp4270
g10
g612
sg12
S'0.90000'
p4271
sg14
g290
sg16
S'0.93000'
p4272
sg18
g432
sg19
S'0.90000'
p4273
sg21
S'0.87000'
p4274
sbtp4275
asS'i_n'
p4276
(lp4277
(g121
g4
(g5
g6
Ntp4278
Rp4279
(dp4280
g10
g612
sg12
S'0.62000'
p4281
sg14
g53
sg16
S'0.83000'
p4282
sg18
g121
sg19
S'0.62000'
p4283
sg21
S'0.39000'
p4284
sbtp4285
a(g286
g4
(g5
g6
Ntp4286
Rp4287
(dp4288
g10
g612
sg12
S'1.50000'
p4289
sg14
g53
sg16
S'1.53000'
p4290
sg18
g286
sg19
S'1.50000'
p4291
sg21
S'1.16000'
p4292
sbtp4293
a(g444
g4
(g5
g6
Ntp4294
Rp4295
(dp4296
g10
g612
sg12
S'1.51000'
p4297
sg14
g53
sg16
S'1.55000'
p4298
sg18
g444
sg19
S'1.51000'
p4299
sg21
S'1.08000'
p4300
sbtp4301
a(g455
g4
(g5
g6
Ntp4302
Rp4303
(dp4304
g10
g612
sg12
S'0.26000'
p4305
sg14
g53
sg16
S'0.29000'
p4306
sg18
g455
sg19
S'0.26000'
p4307
sg21
S'0.19000'
p4308
sbtp4309
a(g455
g4
(g5
g6
Ntp4310
Rp4311
(dp4312
g10
g612
sg12
S'0.44000'
p4313
sg14
g53
sg16
S'0.47000'
p4314
sg18
g455
sg19
S'0.44000'
p4315
sg21
S'0.29000'
p4316
sbtp4317
a(g432
g4
(g5
g6
Ntp4318
Rp4319
(dp4320
g10
g612
sg12
S'1.17000'
p4321
sg14
g53
sg16
S'1.21000'
p4322
sg18
g432
sg19
S'1.17000'
p4323
sg21
S'1.13000'
p4324
sbtp4325
a(g389
g4
(g5
g6
Ntp4326
Rp4327
(dp4328
g10
g612
sg12
S'1.57000'
p4329
sg14
g53
sg16
S'1.66000'
p4330
sg18
g389
sg19
S'1.57000'
p4331
sg21
S'1.40000'
p4332
sbtp4333
a(g58
g4
(g5
g6
Ntp4334
Rp4335
(dp4336
g10
g612
sg12
S'1.96000'
p4337
sg14
g53
sg16
S'2.04000'
p4338
sg18
g58
sg19
S'1.96000'
p4339
sg21
S'1.86000'
p4340
sbtp4341
asS'h_t'
p4342
(lp4343
(g540
g4
(g5
g6
Ntp4344
Rp4345
(dp4346
g10
g114
sg12
S'0.57000'
p4347
sg14
g1241
sg16
S'0.62000'
p4348
sg18
g540
sg19
S'0.57000'
p4349
sg21
S'0.46000'
p4350
sbtp4351
a(g141
g4
(g5
g6
Ntp4352
Rp4353
(dp4354
g10
g114
sg12
S'0.67000'
p4355
sg14
g1241
sg16
S'0.81000'
p4356
sg18
g141
sg19
S'0.67000'
p4357
sg21
S'0.51000'
p4358
sbtp4359
a(g444
g4
(g5
g6
Ntp4360
Rp4361
(dp4362
g10
g114
sg12
S'0.63000'
p4363
sg14
g1241
sg16
S'0.70000'
p4364
sg18
g444
sg19
S'0.63000'
p4365
sg21
S'0.49000'
p4366
sbtp4367
a(g58
g4
(g5
g6
Ntp4368
Rp4369
(dp4370
g10
g114
sg12
S'0.55000'
p4371
sg14
g1241
sg16
S'0.66000'
p4372
sg18
g58
sg19
S'0.55000'
p4373
sg21
S'0.48000'
p4374
sbtp4375
a(g465
g4
(g5
g6
Ntp4376
Rp4377
(dp4378
g10
g114
sg12
S'0.70000'
p4379
sg14
g1241
sg16
S'0.78000'
p4380
sg18
g465
sg19
S'0.70000'
p4381
sg21
S'0.58000'
p4382
sbtp4383
a(g180
g4
(g5
g6
Ntp4384
Rp4385
(dp4386
g10
g114
sg12
S'0.72000'
p4387
sg14
g1241
sg16
S'0.85000'
p4388
sg18
g180
sg19
S'0.72000'
p4389
sg21
S'0.60000'
p4390
sbtp4391
a(g629
g4
(g5
g6
Ntp4392
Rp4393
(dp4394
g10
g114
sg12
S'0.32000'
p4395
sg14
g1241
sg16
S'0.39000'
p4396
sg18
g629
sg19
S'0.32000'
p4397
sg21
S'0.20000'
p4398
sbtp4399
a(g75
g4
(g5
g6
Ntp4400
Rp4401
(dp4402
g10
g114
sg12
S'0.82000'
p4403
sg14
g1241
sg16
S'0.92000'
p4404
sg18
g75
sg19
S'0.82000'
p4405
sg21
S'0.69000'
p4406
sbtp4407
a(g311
g4
(g5
g6
Ntp4408
Rp4409
(dp4410
g10
g114
sg12
S'0.32000'
p4411
sg14
g1241
sg16
S'0.41000'
p4412
sg18
g311
sg19
S'0.32000'
p4413
sg21
S'0.21000'
p4414
sbtp4415
a(g311
g4
(g5
g6
Ntp4416
Rp4417
(dp4418
g10
g114
sg12
S'0.90000'
p4419
sg14
g1241
sg16
S'1.07000'
p4420
sg18
g311
sg19
S'0.90000'
p4421
sg21
S'0.76000'
p4422
sbtp4423
a(g219
g4
(g5
g6
Ntp4424
Rp4425
(dp4426
g10
g114
sg12
S'0.52000'
p4427
sg14
g1241
sg16
S'0.60000'
p4428
sg18
g219
sg19
S'0.52000'
p4429
sg21
S'0.39000'
p4430
sbtp4431
a(g2269
g4
(g5
g6
Ntp4432
Rp4433
(dp4434
g10
g114
sg12
S'0.36000'
p4435
sg14
g1241
sg16
S'0.44000'
p4436
sg18
g2269
sg19
S'0.36000'
p4437
sg21
S'0.22000'
p4438
sbtp4439
asS'h_iS'
p4440
(lp4441
(g219
g4
(g5
g6
Ntp4442
Rp4443
(dp4444
g10
g114
sg12
S'1.07000'
p4445
sg14
S'iS'
p4446
sg16
S'1.10000'
p4447
sg18
g219
sg19
S'1.07000'
p4448
sg21
S'1.01000'
p4449
sbtp4450
asS'i_k'
p4451
(lp4452
(g540
g4
(g5
g6
Ntp4453
Rp4454
(dp4455
g10
g612
sg12
S'0.85000'
p4456
sg14
g807
sg16
S'0.88000'
p4457
sg18
g540
sg19
S'0.85000'
p4458
sg21
S'0.68000'
p4459
sbtp4460
a(g444
g4
(g5
g6
Ntp4461
Rp4462
(dp4463
g10
g612
sg12
S'2.12000'
p4464
sg14
g807
sg16
S'2.15000'
p4465
sg18
g444
sg19
S'2.12000'
p4466
sg21
S'2.03000'
p4467
sbtp4468
asS'sp_m'
p4469
(lp4470
(g432
g4
(g5
g6
Ntp4471
Rp4472
(dp4473
g10
g393
sg12
S'0.84000'
p4474
sg14
g610
sg16
S'0.87000'
p4475
sg18
g432
sg19
S'0.84000'
p4476
sg21
S'0.78000'
p4477
sbtp4478
asS'h_p'
p4479
(lp4480
(g58
g4
(g5
g6
Ntp4481
Rp4482
(dp4483
g10
g114
sg12
S'3.87000'
p4484
sg14
g15
sg16
S'3.91000'
p4485
sg18
g58
sg19
S'3.87000'
p4486
sg21
S'3.84000'
p4487
sbtp4488
a(g377
g4
(g5
g6
Ntp4489
Rp4490
(dp4491
g10
g114
sg12
S'0.91000'
p4492
sg14
g15
sg16
S'0.97000'
p4493
sg18
g377
sg19
S'0.91000'
p4494
sg21
S'0.75000'
p4495
sbtp4496
asS'n_t'
p4497
(lp4498
(g642
g4
(g5
g6
Ntp4499
Rp4500
(dp4501
g10
g53
sg12
S'0.77000'
p4502
sg14
g1241
sg16
S'0.88000'
p4503
sg18
g642
sg19
S'0.77000'
p4504
sg21
S'0.64000'
p4505
sbtp4506
a(g58
g4
(g5
g6
Ntp4507
Rp4508
(dp4509
g10
g53
sg12
S'2.40000'
p4510
sg14
g1241
sg16
S'2.53000'
p4511
sg18
g58
sg19
S'2.40000'
p4512
sg21
S'2.13000'
p4513
sbtp4514
a(g190
g4
(g5
g6
Ntp4515
Rp4516
(dp4517
g10
g53
sg12
S'0.91000'
p4518
sg14
g1241
sg16
S'0.99000'
p4519
sg18
g190
sg19
S'0.91000'
p4520
sg21
S'0.78000'
p4521
sbtp4522
a(g86
g4
(g5
g6
Ntp4523
Rp4524
(dp4525
g10
g53
sg12
S'1.20000'
p4526
sg14
g1241
sg16
S'1.29000'
p4527
sg18
g86
sg19
S'1.20000'
p4528
sg21
S'1.07000'
p4529
sbtp4530
a(g1452
g4
(g5
g6
Ntp4531
Rp4532
(dp4533
g10
g53
sg12
S'1.01000'
p4534
sg14
g1241
sg16
S'1.09000'
p4535
sg18
g1452
sg19
S'1.01000'
p4536
sg21
S'0.86000'
p4537
sbtp4538
a(g653
g4
(g5
g6
Ntp4539
Rp4540
(dp4541
g10
g53
sg12
S'1.04000'
p4542
sg14
g1241
sg16
S'1.10000'
p4543
sg18
g653
sg19
S'1.04000'
p4544
sg21
S'1.01000'
p4545
sbtp4546
a(g2269
g4
(g5
g6
Ntp4547
Rp4548
(dp4549
g10
g53
sg12
S'1.12000'
p4550
sg14
g1241
sg16
S'1.15000'
p4551
sg18
g2269
sg19
S'1.12000'
p4552
sg21
S'1.02000'
p4553
sbtp4554
asS'n_p'
p4555
(lp4556
(g455
g4
(g5
g6
Ntp4557
Rp4558
(dp4559
g10
g53
sg12
S'1.14000'
p4560
sg14
g15
sg16
S'1.28000'
p4561
sg18
g455
sg19
S'1.14000'
p4562
sg21
S'1.11000'
p4563
sbtp4564
asS'r_eS'
p4565
(lp4566
(g642
g4
(g5
g6
Ntp4567
Rp4568
(dp4569
g10
g572
sg12
S'0.55000'
p4570
sg14
S'eS'
p4571
sg16
S'0.61000'
p4572
sg18
g642
sg19
S'0.55000'
p4573
sg21
S'0.51000'
p4574
sbtp4575
a(g3
g4
(g5
g6
Ntp4576
Rp4577
(dp4578
g10
g572
sg12
S'0.89000'
p4579
sg14
S'eS'
p4580
sg16
S'0.92000'
p4581
sg18
g3
sg19
S'0.89000'
p4582
sg21
S'0.83000'
p4583
sbtp4584
asS'n_l'
p4585
(lp4586
(g47
g4
(g5
g6
Ntp4587
Rp4588
(dp4589
g10
g53
sg12
S'0.92000'
p4590
sg14
g687
sg16
S'1.12000'
p4591
sg18
g47
sg19
S'0.92000'
p4592
sg21
S'0.88000'
p4593
sbtp4594
a(g58
g4
(g5
g6
Ntp4595
Rp4596
(dp4597
g10
g53
sg12
S'3.15000'
p4598
sg14
g687
sg16
S'3.42000'
p4599
sg18
g58
sg19
S'3.15000'
p4600
sg21
S'3.06000'
p4601
sbtp4602
a(g219
g4
(g5
g6
Ntp4603
Rp4604
(dp4605
g10
g53
sg12
S'0.70000'
p4606
sg14
g687
sg16
S'0.97000'
p4607
sg18
g219
sg19
S'0.70000'
p4608
sg21
S'0.67000'
p4609
sbtp4610
asS'n_d'
p4611
(lp4612
(g151
g4
(g5
g6
Ntp4613
Rp4614
(dp4615
g10
g53
sg12
S'0.85000'
p4616
sg14
g339
sg16
S'0.88000'
p4617
sg18
g151
sg19
S'0.85000'
p4618
sg21
S'0.82000'
p4619
sbtp4620
a(g1452
g4
(g5
g6
Ntp4621
Rp4622
(dp4623
g10
g53
sg12
S'1.40000'
p4624
sg14
g339
sg16
S'1.68000'
p4625
sg18
g1452
sg19
S'1.40000'
p4626
sg21
S'1.20000'
p4627
sbtp4628
asS'n_n'
p4629
(lp4630
(g58
g4
(g5
g6
Ntp4631
Rp4632
(dp4633
g10
g53
sg12
S'2.04000'
p4634
sg14
g53
sg16
S'2.07000'
p4635
sg18
g58
sg19
S'2.04000'
p4636
sg21
S'1.96000'
p4637
sbtp4638
asS'n_o'
p4639
(lp4640
(g121
g4
(g5
g6
Ntp4641
Rp4642
(dp4643
g10
g53
sg12
S'0.23000'
p4644
sg14
g290
sg16
S'0.26000'
p4645
sg18
g121
sg19
S'0.23000'
p4646
sg21
S'0.02000'
p4647
sbtp4648
a(g47
g4
(g5
g6
Ntp4649
Rp4650
(dp4651
g10
g53
sg12
S'0.29000'
p4652
sg14
g290
sg16
S'0.41000'
p4653
sg18
g47
sg19
S'0.29000'
p4654
sg21
S'0.02000'
p4655
sbtp4656
a(g540
g4
(g5
g6
Ntp4657
Rp4658
(dp4659
g10
g53
sg12
S'0.16000'
p4660
sg14
g290
sg16
S'0.36000'
p4661
sg18
g540
sg19
S'0.16000'
p4662
sg21
S'0.02000'
p4663
sbtp4664
a(g455
g4
(g5
g6
Ntp4665
Rp4666
(dp4667
g10
g53
sg12
S'0.13000'
p4668
sg14
g290
sg16
S'0.16000'
p4669
sg18
g455
sg19
S'0.13000'
p4670
sg21
S'0.02000'
p4671
sbtp4672
a(g367
g4
(g5
g6
Ntp4673
Rp4674
(dp4675
g10
g53
sg12
S'0.18000'
p4676
sg14
g290
sg16
S'0.29000'
p4677
sg18
g367
sg19
S'0.18000'
p4678
sg21
S'0.08000'
p4679
sbtp4680
a(g367
g4
(g5
g6
Ntp4681
Rp4682
(dp4683
g10
g53
sg12
S'0.58000'
p4684
sg14
g290
sg16
S'0.69000'
p4685
sg18
g367
sg19
S'0.58000'
p4686
sg21
S'0.40000'
p4687
sbtp4688
a(g389
g4
(g5
g6
Ntp4689
Rp4690
(dp4691
g10
g53
sg12
S'0.20000'
p4692
sg14
g290
sg16
S'0.31000'
p4693
sg18
g389
sg19
S'0.20000'
p4694
sg21
S'0.12000'
p4695
sbtp4696
a(g1474
g4
(g5
g6
Ntp4697
Rp4698
(dp4699
g10
g53
sg12
S'0.18000'
p4700
sg14
g290
sg16
S'0.35000'
p4701
sg18
g1474
sg19
S'0.18000'
p4702
sg21
S'0.02000'
p4703
sbtp4704
a(g1452
g4
(g5
g6
Ntp4705
Rp4706
(dp4707
g10
g53
sg12
S'0.22000'
p4708
sg14
g290
sg16
S'0.39000'
p4709
sg18
g1452
sg19
S'0.22000'
p4710
sg21
S'0.02000'
p4711
sbtp4712
a(g3
g4
(g5
g6
Ntp4713
Rp4714
(dp4715
g10
g53
sg12
S'0.25000'
p4716
sg14
g290
sg16
S'0.47000'
p4717
sg18
g3
sg19
S'0.25000'
p4718
sg21
S'0.09000'
p4719
sbtp4720
a(g1003
g4
(g5
g6
Ntp4721
Rp4722
(dp4723
g10
g53
sg12
S'0.15000'
p4724
sg14
g290
sg16
S'0.26000'
p4725
sg18
g1003
sg19
S'0.15000'
p4726
sg21
S'0.02000'
p4727
sbtp4728
a(g209
g4
(g5
g6
Ntp4729
Rp4730
(dp4731
g10
g53
sg12
S'0.67000'
p4732
sg14
g290
sg16
S'0.72000'
p4733
sg18
g209
sg19
S'0.67000'
p4734
sg21
S'0.46000'
p4735
sbtp4736
a(g97
g4
(g5
g6
Ntp4737
Rp4738
(dp4739
g10
g53
sg12
S'0.25000'
p4740
sg14
g290
sg16
S'0.30000'
p4741
sg18
g97
sg19
S'0.25000'
p4742
sg21
S'0.21000'
p4743
sbtp4744
asS'h_b'
p4745
(lp4746
(g1003
g4
(g5
g6
Ntp4747
Rp4748
(dp4749
g10
g114
sg12
S'0.35000'
p4750
sg14
g38
sg16
S'0.52000'
p4751
sg18
g1003
sg19
S'0.35000'
p4752
sg21
S'0.26000'
p4753
sbtp4754
asS'n_i'
p4755
(lp4756
(g455
g4
(g5
g6
Ntp4757
Rp4758
(dp4759
g10
g53
sg12
S'0.29000'
p4760
sg14
g612
sg16
S'0.44000'
p4761
sg18
g455
sg19
S'0.29000'
p4762
sg21
S'0.26000'
p4763
sbtp4764
a(g58
g4
(g5
g6
Ntp4765
Rp4766
(dp4767
g10
g53
sg12
S'2.07000'
p4768
sg14
g612
sg16
S'2.10000'
p4769
sg18
g58
sg19
S'2.07000'
p4770
sg21
S'2.04000'
p4771
sbtp4772
asS'eS_sil'
p4773
(lp4774
(g1474
g4
(g5
g6
Ntp4775
Rp4776
(dp4777
g10
S'eS'
p4778
sg12
S'1.52000'
p4779
sg14
S'sil'
p4780
sg16
S'1.54000'
p4781
sg18
g1474
sg19
S'1.52000'
p4782
sg21
S'1.49000'
p4783
sbtp4784
asS'h_n'
p4785
(lp4786
(g354
g4
(g5
g6
Ntp4787
Rp4788
(dp4789
g10
g114
sg12
S'0.67000'
p4790
sg14
g53
sg16
S'0.98000'
p4791
sg18
g354
sg19
S'0.67000'
p4792
sg21
S'0.49000'
p4793
sbtp4794
asS'sp_iS'
p4795
(lp4796
(g1325
g4
(g5
g6
Ntp4797
Rp4798
(dp4799
g10
g393
sg12
S'0.96000'
p4800
sg14
S'iS'
p4801
sg16
S'1.45000'
p4802
sg18
g1325
sg19
S'0.96000'
p4803
sg21
S'0.93000'
p4804
sbtp4805
asS'i_u'
p4806
(lp4807
(g47
g4
(g5
g6
Ntp4808
Rp4809
(dp4810
g10
g612
sg12
S'0.69000'
p4811
sg14
g51
sg16
S'0.88000'
p4812
sg18
g47
sg19
S'0.69000'
p4813
sg21
S'0.61000'
p4814
sbtp4815
a(g58
g4
(g5
g6
Ntp4816
Rp4817
(dp4818
g10
g612
sg12
S'2.10000'
p4819
sg14
g51
sg16
S'2.13000'
p4820
sg18
g58
sg19
S'2.10000'
p4821
sg21
S'2.07000'
p4822
sbtp4823
asS'n_g'
p4824
(lp4825
(g121
g4
(g5
g6
Ntp4826
Rp4827
(dp4828
g10
g53
sg12
S'0.83000'
p4829
sg14
g448
sg16
S'1.33000'
p4830
sg18
g121
sg19
S'0.83000'
p4831
sg21
S'0.62000'
p4832
sbtp4833
a(g455
g4
(g5
g6
Ntp4834
Rp4835
(dp4836
g10
g53
sg12
S'0.47000'
p4837
sg14
g448
sg16
S'1.08000'
p4838
sg18
g455
sg19
S'0.47000'
p4839
sg21
S'0.44000'
p4840
sbtp4841
a(g1325
g4
(g5
g6
Ntp4842
Rp4843
(dp4844
g10
g53
sg12
S'0.17000'
p4845
sg14
g448
sg16
S'0.35000'
p4846
sg18
g1325
sg19
S'0.17000'
p4847
sg21
S'0.14000'
p4848
sbtp4849
a(g642
g4
(g5
g6
Ntp4850
Rp4851
(dp4852
g10
g53
sg12
S'0.15000'
p4853
sg14
g448
sg16
S'0.32000'
p4854
sg18
g642
sg19
S'0.15000'
p4855
sg21
S'0.12000'
p4856
sbtp4857
a(g190
g4
(g5
g6
Ntp4858
Rp4859
(dp4860
g10
g53
sg12
S'0.17000'
p4861
sg14
g448
sg16
S'0.31000'
p4862
sg18
g190
sg19
S'0.17000'
p4863
sg21
S'0.14000'
p4864
sbtp4865
a(g653
g4
(g5
g6
Ntp4866
Rp4867
(dp4868
g10
g53
sg12
S'0.16000'
p4869
sg14
g448
sg16
S'0.79000'
p4870
sg18
g653
sg19
S'0.16000'
p4871
sg21
S'0.13000'
p4872
sbtp4873
asS'i_s'
p4874
(lp4875
(g947
g4
(g5
g6
Ntp4876
Rp4877
(dp4878
g10
g612
sg12
S'0.61000'
p4879
sg14
g302
sg16
S'0.84000'
p4880
sg18
g947
sg19
S'0.61000'
p4881
sg21
S'0.29000'
p4882
sbtp4883
asS'n_a'
p4884
(lp4885
(g286
g4
(g5
g6
Ntp4886
Rp4887
(dp4888
g10
g53
sg12
S'0.82000'
p4889
sg14
g244
sg16
S'0.85000'
p4890
sg18
g286
sg19
S'0.82000'
p4891
sg21
S'0.75000'
p4892
sbtp4893
a(g354
g4
(g5
g6
Ntp4894
Rp4895
(dp4896
g10
g53
sg12
S'0.34000'
p4897
sg14
g244
sg16
S'0.49000'
p4898
sg18
g354
sg19
S'0.34000'
p4899
sg21
S'0.26000'
p4900
sbtp4901
a(g141
g4
(g5
g6
Ntp4902
Rp4903
(dp4904
g10
g53
sg12
S'0.35000'
p4905
sg14
g244
sg16
S'0.51000'
p4906
sg18
g141
sg19
S'0.35000'
p4907
sg21
S'0.29000'
p4908
sbtp4909
a(g389
g4
(g5
g6
Ntp4910
Rp4911
(dp4912
g10
g53
sg12
S'1.05000'
p4913
sg14
g244
sg16
S'1.12000'
p4914
sg18
g389
sg19
S'1.05000'
p4915
sg21
S'0.94000'
p4916
sbtp4917
a(g389
g4
(g5
g6
Ntp4918
Rp4919
(dp4920
g10
g53
sg12
S'1.66000'
p4921
sg14
g244
sg16
S'1.84000'
p4922
sg18
g389
sg19
S'1.66000'
p4923
sg21
S'1.57000'
p4924
sbtp4925
a(g629
g4
(g5
g6
Ntp4926
Rp4927
(dp4928
g10
g53
sg12
S'0.94000'
p4929
sg14
g244
sg16
S'1.14000'
p4930
sg18
g629
sg19
S'0.94000'
p4931
sg21
S'0.85000'
p4932
sbtp4933
asS't_iSC'
p4934
(lp4935
(g86
g4
(g5
g6
Ntp4936
Rp4937
(dp4938
g10
g1241
sg12
S'1.29000'
p4939
sg14
S'iSC'
p4940
sg16
S'1.63000'
p4941
sg18
g86
sg19
S'1.29000'
p4942
sg21
S'1.20000'
p4943
sbtp4944
a(g229
g4
(g5
g6
Ntp4945
Rp4946
(dp4947
g10
g1241
sg12
S'0.94000'
p4948
sg14
S'iSC'
p4949
sg16
S'1.07000'
p4950
sg18
g229
sg19
S'0.94000'
p4951
sg21
S'0.72000'
p4952
sbtp4953
asS'sp_s'
p4954
(lp4955
(g286
g4
(g5
g6
Ntp4956
Rp4957
(dp4958
g10
g393
sg12
S'0.44000'
p4959
sg14
g302
sg16
S'0.56000'
p4960
sg18
g286
sg19
S'0.44000'
p4961
sg21
S'0.40000'
p4962
sbtp4963
asS'b_iS'
p4964
(lp4965
(g151
g4
(g5
g6
Ntp4966
Rp4967
(dp4968
g10
g38
sg12
S'1.08000'
p4969
sg14
S'iS'
p4970
sg16
S'1.31000'
p4971
sg18
g151
sg19
S'1.08000'
p4972
sg21
S'0.91000'
p4973
sbtp4974
a(g86
g4
(g5
g6
Ntp4975
Rp4976
(dp4977
g10
g38
sg12
S'0.35000'
p4978
sg14
S'iS'
p4979
sg16
S'0.52000'
p4980
sg18
g86
sg19
S'0.35000'
p4981
sg21
S'0.30000'
p4982
sbtp4983
a(g519
g4
(g5
g6
Ntp4984
Rp4985
(dp4986
g10
g38
sg12
S'1.34000'
p4987
sg14
S'iS'
p4988
sg16
S'1.39000'
p4989
sg18
g519
sg19
S'1.34000'
p4990
sg21
S'1.31000'
p4991
sbtp4992
asS'm_b'
p4993
(lp4994
(g58
g4
(g5
g6
Ntp4995
Rp4996
(dp4997
g10
g610
sg12
S'2.89000'
p4998
sg14
g38
sg16
S'2.92000'
p4999
sg18
g58
sg19
S'2.89000'
p5000
sg21
S'2.86000'
p5001
sbtp5002
a(g75
g4
(g5
g6
Ntp5003
Rp5004
(dp5005
g10
g610
sg12
S'1.42000'
p5006
sg14
g38
sg16
S'1.50000'
p5007
sg18
g75
sg19
S'1.42000'
p5008
sg21
S'1.15000'
p5009
sbtp5010
asS'r_p'
p5011
(lp5012
(g58
g4
(g5
g6
Ntp5013
Rp5014
(dp5015
g10
g572
sg12
S'4.10000'
p5016
sg14
g15
sg16
S'4.13000'
p5017
sg18
g58
sg19
S'4.10000'
p5018
sg21
S'3.94000'
p5019
sbtp5020
asS'p_r'
p5021
(lp5022
(g455
g4
(g5
g6
Ntp5023
Rp5024
(dp5025
g10
g15
sg12
S'1.28000'
p5026
sg14
g572
sg16
S'1.31000'
p5027
sg18
g455
sg19
S'1.28000'
p5028
sg21
S'1.14000'
p5029
sbtp5030
a(g3
g4
(g5
g6
Ntp5031
Rp5032
(dp5033
g10
g15
sg12
S'0.74000'
p5034
sg14
g572
sg16
S'0.77000'
p5035
sg18
g3
sg19
S'0.74000'
p5036
sg21
S'0.71000'
p5037
sbtp5038
a(g3
g4
(g5
g6
Ntp5039
Rp5040
(dp5041
g10
g15
sg12
S'0.83000'
p5042
sg14
g572
sg16
S'0.89000'
p5043
sg18
g3
sg19
S'0.83000'
p5044
sg21
S'0.80000'
p5045
sbtp5046
a(g2269
g4
(g5
g6
Ntp5047
Rp5048
(dp5049
g10
g15
sg12
S'0.85000'
p5050
sg14
g572
sg16
S'0.93000'
p5051
sg18
g2269
sg19
S'0.85000'
p5052
sg21
S'0.53000'
p5053
sbtp5054
asS'll_aS'
p5055
(lp5056
(g131
g4
(g5
g6
Ntp5057
Rp5058
(dp5059
g10
S'll'
p5060
sg12
S'0.89000'
p5061
sg14
S'aS'
p5062
sg16
S'0.98000'
p5063
sg18
g131
sg19
S'0.89000'
p5064
sg21
S'0.68000'
p5065
sbtp5066
a(g567
g4
(g5
g6
Ntp5067
Rp5068
(dp5069
g10
S'll'
p5070
sg12
S'0.42000'
p5071
sg14
S'aS'
p5072
sg16
S'0.51000'
p5073
sg18
g567
sg19
S'0.42000'
p5074
sg21
S'0.20000'
p5075
sbtp5076
asS'a_p'
p5077
(lp5078
(g2269
g4
(g5
g6
Ntp5079
Rp5080
(dp5081
g10
g244
sg12
S'0.53000'
p5082
sg14
g15
sg16
S'0.85000'
p5083
sg18
g2269
sg19
S'0.53000'
p5084
sg21
S'0.44000'
p5085
sbtp5086
asS'l_oS'
p5087
(lp5088
(g47
g4
(g5
g6
Ntp5089
Rp5090
(dp5091
g10
g687
sg12
S'1.12000'
p5092
sg14
S'oS'
p5093
sg16
S'1.29000'
p5094
sg18
g47
sg19
S'1.12000'
p5095
sg21
S'0.92000'
p5096
sbtp5097
a(g58
g4
(g5
g6
Ntp5098
Rp5099
(dp5100
g10
g687
sg12
S'1.47000'
p5101
sg14
S'oS'
p5102
sg16
S'1.65000'
p5103
sg18
g58
sg19
S'1.47000'
p5104
sg21
S'1.17000'
p5105
sbtp5106
asS't_aS'
p5107
(lp5108
(g141
g4
(g5
g6
Ntp5109
Rp5110
(dp5111
g10
g1241
sg12
S'0.81000'
p5112
sg14
S'aS'
p5113
sg16
S'0.90000'
p5114
sg18
g141
sg19
S'0.81000'
p5115
sg21
S'0.67000'
p5116
sbtp5117
a(g180
g4
(g5
g6
Ntp5118
Rp5119
(dp5120
g10
g1241
sg12
S'0.85000'
p5121
sg14
S'aS'
p5122
sg16
S'1.02000'
p5123
sg18
g180
sg19
S'0.85000'
p5124
sg21
S'0.72000'
p5125
sbtp5126
a(g311
g4
(g5
g6
Ntp5127
Rp5128
(dp5129
g10
g1241
sg12
S'1.07000'
p5130
sg14
S'aS'
p5131
sg16
S'1.17000'
p5132
sg18
g311
sg19
S'1.07000'
p5133
sg21
S'0.90000'
p5134
sbtp5135
asS'sp_aS'
p5136
(lp5137
(g58
g4
(g5
g6
Ntp5138
Rp5139
(dp5140
g10
g393
sg12
S'3.58000'
p5141
sg14
S'aS'
p5142
sg16
S'3.61000'
p5143
sg18
g58
sg19
S'3.58000'
p5144
sg21
S'3.50000'
p5145
sbtp5146
asS's_eS'
p5147
(lp5148
(g58
g4
(g5
g6
Ntp5149
Rp5150
(dp5151
g10
g302
sg12
S'4.41000'
p5152
sg14
S'eS'
p5153
sg16
S'4.46000'
p5154
sg18
g58
sg19
S'4.41000'
p5155
sg21
S'4.36000'
p5156
sbtp5157
asS'p_aS'
p5158
(lp5159
(g58
g4
(g5
g6
Ntp5160
Rp5161
(dp5162
g10
g15
sg12
S'3.91000'
p5163
sg14
S'aS'
p5164
sg16
S'3.94000'
p5165
sg18
g58
sg19
S'3.91000'
p5166
sg21
S'3.87000'
p5167
sbtp5168
asS'r_m'
p5169
(lp5170
(g444
g4
(g5
g6
Ntp5171
Rp5172
(dp5173
g10
g572
sg12
S'1.64000'
p5174
sg14
g610
sg16
S'1.80000'
p5175
sg18
g444
sg19
S'1.64000'
p5176
sg21
S'1.61000'
p5177
sbtp5178
asS'sp_sil'
p5179
(lp5180
(g47
g4
(g5
g6
Ntp5181
Rp5182
(dp5183
g10
g393
sg12
S'1.80000'
p5184
sg14
S'sil'
p5185
sg16
S'1.82000'
p5186
sg18
g47
sg19
S'1.80000'
p5187
sg21
S'1.65000'
p5188
sbtp5189
a(g354
g4
(g5
g6
Ntp5190
Rp5191
(dp5192
g10
g393
sg12
S'1.63000'
p5193
sg14
S'sil'
p5194
sg16
S'1.65000'
p5195
sg18
g354
sg19
S'1.63000'
p5196
sg21
S'1.59000'
p5197
sbtp5198
a(g432
g4
(g5
g6
Ntp5199
Rp5200
(dp5201
g10
g393
sg12
S'1.89000'
p5202
sg14
S'sil'
p5203
sg16
S'1.91000'
p5204
sg18
g432
sg19
S'1.89000'
p5205
sg21
S'1.87000'
p5206
sbtp5207
a(g1325
g4
(g5
g6
Ntp5208
Rp5209
(dp5210
g10
g393
sg12
S'1.84000'
p5211
sg14
S'sil'
p5212
sg16
S'1.86000'
p5213
sg18
g1325
sg19
S'1.84000'
p5214
sg21
S'1.78000'
p5215
sbtp5216
a(g567
g4
(g5
g6
Ntp5217
Rp5218
(dp5219
g10
g393
sg12
S'1.50000'
p5220
sg14
S'sil'
p5221
sg16
S'1.52000'
p5222
sg18
g567
sg19
S'1.50000'
p5223
sg21
S'1.49000'
p5224
sbtp5225
a(g389
g4
(g5
g6
Ntp5226
Rp5227
(dp5228
g10
g393
sg12
S'1.89000'
p5229
sg14
S'sil'
p5230
sg16
S'1.91000'
p5231
sg18
g389
sg19
S'1.89000'
p5232
sg21
S'1.84000'
p5233
sbtp5234
a(g642
g4
(g5
g6
Ntp5235
Rp5236
(dp5237
g10
g393
sg12
S'1.90000'
p5238
sg14
S'sil'
p5239
sg16
S'1.92000'
p5240
sg18
g642
sg19
S'1.90000'
p5241
sg21
S'1.89000'
p5242
sbtp5243
a(g465
g4
(g5
g6
Ntp5244
Rp5245
(dp5246
g10
g393
sg12
S'1.65000'
p5247
sg14
S'sil'
p5248
sg16
S'1.67000'
p5249
sg18
g465
sg19
S'1.65000'
p5250
sg21
S'1.53000'
p5251
sbtp5252
a(g34
g4
(g5
g6
Ntp5253
Rp5254
(dp5255
g10
g393
sg12
S'1.44000'
p5256
sg14
S'sil'
p5257
sg16
S'1.46000'
p5258
sg18
g34
sg19
S'1.44000'
p5259
sg21
S'1.37000'
p5260
sbtp5261
a(g629
g4
(g5
g6
Ntp5262
Rp5263
(dp5264
g10
g393
sg12
S'1.17000'
p5265
sg14
S'sil'
p5266
sg16
S'1.19000'
p5267
sg18
g629
sg19
S'1.17000'
p5268
sg21
S'1.14000'
p5269
sbtp5270
a(g75
g4
(g5
g6
Ntp5271
Rp5272
(dp5273
g10
g393
sg12
S'1.66000'
p5274
sg14
S'sil'
p5275
sg16
S'1.68000'
p5276
sg18
g75
sg19
S'1.66000'
p5277
sg21
S'1.64000'
p5278
sbtp5279
a(g377
g4
(g5
g6
Ntp5280
Rp5281
(dp5282
g10
g393
sg12
S'1.57000'
p5283
sg14
S'sil'
p5284
sg16
S'1.61000'
p5285
sg18
g377
sg19
S'1.57000'
p5286
sg21
S'1.54000'
p5287
sbtp5288
a(g653
g4
(g5
g6
Ntp5289
Rp5290
(dp5291
g10
g393
sg12
S'1.89000'
p5292
sg14
S'sil'
p5293
sg16
S'1.91000'
p5294
sg18
g653
sg19
S'1.89000'
p5295
sg21
S'1.85000'
p5296
sbtp5297
a(g1003
g4
(g5
g6
Ntp5298
Rp5299
(dp5300
g10
g393
sg12
S'1.28000'
p5301
sg14
S'sil'
p5302
sg16
S'1.30000'
p5303
sg18
g1003
sg19
S'1.28000'
p5304
sg21
S'1.24000'
p5305
sbtp5306
asS'u_t'
p5307
(lp5308
(g47
g4
(g5
g6
Ntp5309
Rp5310
(dp5311
g10
g51
sg12
S'1.35000'
p5312
sg14
g1241
sg16
S'1.41000'
p5313
sg18
g47
sg19
S'1.35000'
p5314
sg21
S'1.32000'
p5315
sbtp5316
asS'n_ch'
p5317
(lp5318
(g58
g4
(g5
g6
Ntp5319
Rp5320
(dp5321
g10
g53
sg12
S'3.71000'
p5322
sg14
S'ch'
p5323
sg16
S'3.81000'
p5324
sg18
g58
sg19
S'3.71000'
p5325
sg21
S'3.61000'
p5326
sbtp5327
asS'r_a'
p5328
(lp5329
(g58
g4
(g5
g6
Ntp5330
Rp5331
(dp5332
g10
g572
sg12
S'3.00000'
p5333
sg14
g244
sg16
S'3.03000'
p5334
sg18
g58
sg19
S'3.00000'
p5335
sg21
S'2.92000'
p5336
sbtp5337
asS'sp_t'
p5338
(lp5339
(g34
g4
(g5
g6
Ntp5340
Rp5341
(dp5342
g10
g393
sg12
S'0.22000'
p5343
sg14
g1241
sg16
S'0.30000'
p5344
sg18
g34
sg19
S'0.22000'
p5345
sg21
S'0.19000'
p5346
sbtp5347
asS'r_d'
p5348
(lp5349
(g141
g4
(g5
g6
Ntp5350
Rp5351
(dp5352
g10
g572
sg12
S'1.04000'
p5353
sg14
g339
sg16
S'1.12000'
p5354
sg18
g141
sg19
S'1.04000'
p5355
sg21
S'0.90000'
p5356
sbtp5357
a(g311
g4
(g5
g6
Ntp5358
Rp5359
(dp5360
g10
g572
sg12
S'1.60000'
p5361
sg14
g339
sg16
S'1.63000'
p5362
sg18
g311
sg19
S'1.60000'
p5363
sg21
S'1.17000'
p5364
sbtp5365
asS'r_e'
p5366
(lp5367
(g1325
g4
(g5
g6
Ntp5368
Rp5369
(dp5370
g10
g572
sg12
S'0.57000'
p5371
sg14
g11
sg16
S'0.72000'
p5372
sg18
g1325
sg19
S'0.57000'
p5373
sg21
S'0.53000'
p5374
sbtp5375
a(g75
g4
(g5
g6
Ntp5376
Rp5377
(dp5378
g10
g572
sg12
S'1.59000'
p5379
sg14
g11
sg16
S'1.64000'
p5380
sg18
g75
sg19
S'1.59000'
p5381
sg21
S'1.50000'
p5382
sbtp5383
a(g3
g4
(g5
g6
Ntp5384
Rp5385
(dp5386
g10
g572
sg12
S'0.77000'
p5387
sg14
g11
sg16
S'0.80000'
p5388
sg18
g3
sg19
S'0.77000'
p5389
sg21
S'0.74000'
p5390
sbtp5391
asS'aS_i'
p5392
(lp5393
(g455
g4
(g5
g6
Ntp5394
Rp5395
(dp5396
g10
S'aS'
p5397
sg12
S'0.19000'
p5398
sg14
g612
sg16
S'0.26000'
p5399
sg18
g455
sg19
S'0.19000'
p5400
sg21
S'0.16000'
p5401
sbtp5402
a(g1474
g4
(g5
g6
Ntp5403
Rp5404
(dp5405
g10
S'aS'
p5406
sg12
S'0.39000'
p5407
sg14
g612
sg16
S'1.08000'
p5408
sg18
g1474
sg19
S'0.39000'
p5409
sg21
S'0.35000'
p5410
sbtp5411
asS'aS_h'
p5412
(lp5413
(g180
g4
(g5
g6
Ntp5414
Rp5415
(dp5416
g10
S'aS'
p5417
sg12
S'1.02000'
p5418
sg14
g114
sg16
S'1.43000'
p5419
sg18
g180
sg19
S'1.02000'
p5420
sg21
S'0.85000'
p5421
sbtp5422
a(g629
g4
(g5
g6
Ntp5423
Rp5424
(dp5425
g10
S'aS'
p5426
sg12
S'0.20000'
p5427
sg14
g114
sg16
S'0.32000'
p5428
sg18
g629
sg19
S'0.20000'
p5429
sg21
S'0.14000'
p5430
sbtp5431
a(g311
g4
(g5
g6
Ntp5432
Rp5433
(dp5434
g10
S'aS'
p5435
sg12
S'0.21000'
p5436
sg14
g114
sg16
S'0.32000'
p5437
sg18
g311
sg19
S'0.21000'
p5438
sg21
S'0.15000'
p5439
sbtp5440
a(g311
g4
(g5
g6
Ntp5441
Rp5442
(dp5443
g10
S'aS'
p5444
sg12
S'0.76000'
p5445
sg14
g114
sg16
S'0.90000'
p5446
sg18
g311
sg19
S'0.76000'
p5447
sg21
S'0.63000'
p5448
sbtp5449
a(g2269
g4
(g5
g6
Ntp5450
Rp5451
(dp5452
g10
S'aS'
p5453
sg12
S'0.22000'
p5454
sg14
g114
sg16
S'0.36000'
p5455
sg18
g2269
sg19
S'0.22000'
p5456
sg21
S'0.04000'
p5457
sbtp5458
asS'aS_k'
p5459
(lp5460
(g389
g4
(g5
g6
Ntp5461
Rp5462
(dp5463
g10
S'aS'
p5464
sg12
S'1.37000'
p5465
sg14
g807
sg16
S'1.40000'
p5466
sg18
g389
sg19
S'1.37000'
p5467
sg21
S'1.26000'
p5468
sbtp5469
asS'r_oS'
p5470
(lp5471
(g2269
g4
(g5
g6
Ntp5472
Rp5473
(dp5474
g10
g572
sg12
S'0.93000'
p5475
sg14
S'oS'
p5476
sg16
S'1.02000'
p5477
sg18
g2269
sg19
S'0.93000'
p5478
sg21
S'0.85000'
p5479
sbtp5480
asS'aS_m'
p5481
(lp5482
(g131
g4
(g5
g6
Ntp5483
Rp5484
(dp5485
g10
S'aS'
p5486
sg12
S'0.98000'
p5487
sg14
g610
sg16
S'1.12000'
p5488
sg18
g131
sg19
S'0.98000'
p5489
sg21
S'0.89000'
p5490
sbtp5491
a(g567
g4
(g5
g6
Ntp5492
Rp5493
(dp5494
g10
S'aS'
p5495
sg12
S'0.51000'
p5496
sg14
g610
sg16
S'0.73000'
p5497
sg18
g567
sg19
S'0.51000'
p5498
sg21
S'0.42000'
p5499
sbtp5500
asS'aS_l'
p5501
(lp5502
(g75
g4
(g5
g6
Ntp5503
Rp5504
(dp5505
g10
S'aS'
p5506
sg12
S'0.56000'
p5507
sg14
g687
sg16
S'0.59000'
p5508
sg18
g75
sg19
S'0.56000'
p5509
sg21
S'0.53000'
p5510
sbtp5511
asS'aS_n'
p5512
(lp5513
(g58
g4
(g5
g6
Ntp5514
Rp5515
(dp5516
g10
S'aS'
p5517
sg12
S'3.61000'
p5518
sg14
g53
sg16
S'3.71000'
p5519
sg18
g58
sg19
S'3.61000'
p5520
sg21
S'3.58000'
p5521
sbtp5522
a(g629
g4
(g5
g6
Ntp5523
Rp5524
(dp5525
g10
S'aS'
p5526
sg12
S'0.85000'
p5527
sg14
g53
sg16
S'0.94000'
p5528
sg18
g629
sg19
S'0.85000'
p5529
sg21
S'0.77000'
p5530
sbtp5531
asS'k_oS'
p5532
(lp5533
(g131
g4
(g5
g6
Ntp5534
Rp5535
(dp5536
g10
g807
sg12
S'0.05000'
p5537
sg14
S'oS'
p5538
sg16
S'0.13000'
p5539
sg18
g131
sg19
S'0.05000'
p5540
sg21
S'0.02000'
p5541
sbtp5542
a(g367
g4
(g5
g6
Ntp5543
Rp5544
(dp5545
g10
g807
sg12
S'0.32000'
p5546
sg14
S'oS'
p5547
sg16
S'0.40000'
p5548
sg18
g367
sg19
S'0.32000'
p5549
sg21
S'0.29000'
p5550
sbtp5551
a(g180
g4
(g5
g6
Ntp5552
Rp5553
(dp5554
g10
g807
sg12
S'0.28000'
p5555
sg14
S'oS'
p5556
sg16
S'0.31000'
p5557
sg18
g180
sg19
S'0.28000'
p5558
sg21
S'0.25000'
p5559
sbtp5560
asS'iS_x'
p5561
(lp5562
(g1325
g4
(g5
g6
Ntp5563
Rp5564
(dp5565
g10
S'iS'
p5566
sg12
S'1.45000'
p5567
sg14
g3183
sg16
S'1.48000'
p5568
sg18
g1325
sg19
S'1.45000'
p5569
sg21
S'0.96000'
p5570
sbtp5571
asS'aS_llA'
p5572
(lp5573
(g34
g4
(g5
g6
Ntp5574
Rp5575
(dp5576
g10
S'aS'
p5577
sg12
S'0.42000'
p5578
sg14
S'llA'
p5579
sg16
S'0.45000'
p5580
sg18
g34
sg19
S'0.42000'
p5581
sg21
S'0.39000'
p5582
sbtp5583
asS'aS_b'
p5584
(lp5585
(g110
g4
(g5
g6
Ntp5586
Rp5587
(dp5588
g10
S'aS'
p5589
sg12
S'1.18000'
p5590
sg14
g38
sg16
S'1.36000'
p5591
sg18
g110
sg19
S'1.18000'
p5592
sg21
S'1.09000'
p5593
sbtp5594
a(g121
g4
(g5
g6
Ntp5595
Rp5596
(dp5597
g10
S'aS'
p5598
sg12
S'0.29000'
p5599
sg14
g38
sg16
S'0.32000'
p5600
sg18
g121
sg19
S'0.29000'
p5601
sg21
S'0.26000'
p5602
sbtp5603
a(g377
g4
(g5
g6
Ntp5604
Rp5605
(dp5606
g10
S'aS'
p5607
sg12
S'0.15000'
p5608
sg14
g38
sg16
S'0.26000'
p5609
sg18
g377
sg19
S'0.15000'
p5610
sg21
S'0.10000'
p5611
sbtp5612
asS'aS_g'
p5613
(lp5614
(g86
g4
(g5
g6
Ntp5615
Rp5616
(dp5617
g10
S'aS'
p5618
sg12
S'1.66000'
p5619
sg14
g448
sg16
S'1.74000'
p5620
sg18
g86
sg19
S'1.66000'
p5621
sg21
S'1.63000'
p5622
sbtp5623
asS'rA_o'
p5624
(lp5625
(g947
g4
(g5
g6
Ntp5626
Rp5627
(dp5628
g10
S'rA'
p5629
sg12
S'1.45000'
p5630
sg14
g290
sg16
S'1.69000'
p5631
sg18
g947
sg19
S'1.45000'
p5632
sg21
S'1.37000'
p5633
sbtp5634
asS'n_sp'
p5635
(lp5636
(g432
g4
(g5
g6
Ntp5637
Rp5638
(dp5639
g10
g53
sg12
S'1.87000'
p5640
sg14
g393
sg16
S'1.89000'
p5641
sg18
g432
sg19
S'1.87000'
p5642
sg21
S'1.79000'
p5643
sbtp5644
a(g34
g4
(g5
g6
Ntp5645
Rp5646
(dp5647
g10
g53
sg12
S'1.37000'
p5648
sg14
g393
sg16
S'1.44000'
p5649
sg18
g34
sg19
S'1.37000'
p5650
sg21
S'1.11000'
p5651
sbtp5652
asS'e_s'
p5653
(lp5654
(g58
g4
(g5
g6
Ntp5655
Rp5656
(dp5657
g10
g11
sg12
S'2.77000'
p5658
sg14
g302
sg16
S'2.83000'
p5659
sg18
g58
sg19
S'2.77000'
p5660
sg21
S'2.71000'
p5661
sbtp5662
asS'o_aS'
p5663
(lp5664
(g121
g4
(g5
g6
Ntp5665
Rp5666
(dp5667
g10
g290
sg12
S'0.26000'
p5668
sg14
S'aS'
p5669
sg16
S'0.29000'
p5670
sg18
g121
sg19
S'0.26000'
p5671
sg21
S'0.23000'
p5672
sbtp5673
a(g455
g4
(g5
g6
Ntp5674
Rp5675
(dp5676
g10
g290
sg12
S'0.16000'
p5677
sg14
S'aS'
p5678
sg16
S'0.19000'
p5679
sg18
g455
sg19
S'0.16000'
p5680
sg21
S'0.13000'
p5681
sbtp5682
a(g1474
g4
(g5
g6
Ntp5683
Rp5684
(dp5685
g10
g290
sg12
S'0.35000'
p5686
sg14
S'aS'
p5687
sg16
S'0.39000'
p5688
sg18
g1474
sg19
S'0.35000'
p5689
sg21
S'0.18000'
p5690
sbtp5691
asS'rA_iS'
p5692
(lp5693
(g58
g4
(g5
g6
Ntp5694
Rp5695
(dp5696
g10
S'rA'
p5697
sg12
S'1.68000'
p5698
sg14
S'iS'
p5699
sg16
S'1.71000'
p5700
sg18
g58
sg19
S'1.68000'
p5701
sg21
S'1.65000'
p5702
sbtp5703
a(g58
g4
(g5
g6
Ntp5704
Rp5705
(dp5706
g10
S'rA'
p5707
sg12
S'1.74000'
p5708
sg14
S'iS'
p5709
sg16
S'1.77000'
p5710
sg18
g58
sg19
S'1.74000'
p5711
sg21
S'1.71000'
p5712
sbtp5713
asS'iS_e'
p5714
(lp5715
(g519
g4
(g5
g6
Ntp5716
Rp5717
(dp5718
g10
S'iS'
p5719
sg12
S'0.81000'
p5720
sg14
g11
sg16
S'1.01000'
p5721
sg18
g519
sg19
S'0.81000'
p5722
sg21
S'0.43000'
p5723
sbtp5724
asS'iSC_eS'
p5725
(lp5726
(g229
g4
(g5
g6
Ntp5727
Rp5728
(dp5729
g10
S'iSC'
p5730
sg12
S'1.07000'
p5731
sg14
S'eS'
p5732
sg16
S'1.17000'
p5733
sg18
g229
sg19
S'1.07000'
p5734
sg21
S'0.94000'
p5735
sbtp5736
a(g97
g4
(g5
g6
Ntp5737
Rp5738
(dp5739
g10
S'iSC'
p5740
sg12
S'0.69000'
p5741
sg14
S'eS'
p5742
sg16
S'0.72000'
p5743
sg18
g97
sg19
S'0.69000'
p5744
sg21
S'0.49000'
p5745
sbtp5746
asS'aS_s'
p5747
(lp5748
(g161
g4
(g5
g6
Ntp5749
Rp5750
(dp5751
g10
S'aS'
p5752
sg12
S'1.00000'
p5753
sg14
g302
sg16
S'1.17000'
p5754
sg18
g161
sg19
S'1.00000'
p5755
sg21
S'0.89000'
p5756
sbtp5757
a(g465
g4
(g5
g6
Ntp5758
Rp5759
(dp5760
g10
S'aS'
p5761
sg12
S'1.10000'
p5762
sg14
g302
sg16
S'1.33000'
p5763
sg18
g465
sg19
S'1.10000'
p5764
sg21
S'0.94000'
p5765
sbtp5766
asS'aS_r'
p5767
(lp5768
(g141
g4
(g5
g6
Ntp5769
Rp5770
(dp5771
g10
S'aS'
p5772
sg12
S'0.90000'
p5773
sg14
g572
sg16
S'1.04000'
p5774
sg18
g141
sg19
S'0.90000'
p5775
sg21
S'0.81000'
p5776
sbtp5777
a(g58
g4
(g5
g6
Ntp5778
Rp5779
(dp5780
g10
S'aS'
p5781
sg12
S'3.94000'
p5782
sg14
g572
sg16
S'4.10000'
p5783
sg18
g58
sg19
S'3.94000'
p5784
sg21
S'3.91000'
p5785
sbtp5786
a(g311
g4
(g5
g6
Ntp5787
Rp5788
(dp5789
g10
S'aS'
p5790
sg12
S'1.17000'
p5791
sg14
g572
sg16
S'1.60000'
p5792
sg18
g311
sg19
S'1.17000'
p5793
sg21
S'1.07000'
p5794
sbtp5795
asS'b_uSC'
p5796
(lp5797
(g354
g4
(g5
g6
Ntp5798
Rp5799
(dp5800
g10
g38
sg12
S'0.20000'
p5801
sg14
S'uSC'
p5802
sg16
S'0.23000'
p5803
sg18
g354
sg19
S'0.20000'
p5804
sg21
S'0.02000'
p5805
sbtp5806
a(g141
g4
(g5
g6
Ntp5807
Rp5808
(dp5809
g10
g38
sg12
S'0.23000'
p5810
sg14
S'uSC'
p5811
sg16
S'0.26000'
p5812
sg18
g141
sg19
S'0.23000'
p5813
sg21
S'0.02000'
p5814
sbtp5815
a(g209
g4
(g5
g6
Ntp5816
Rp5817
(dp5818
g10
g38
sg12
S'0.11000'
p5819
sg14
S'uSC'
p5820
sg16
S'0.40000'
p5821
sg18
g209
sg19
S'0.11000'
p5822
sg21
S'0.02000'
p5823
sbtp5824
asS'aS_dA'
p5825
(lp5826
(g540
g4
(g5
g6
Ntp5827
Rp5828
(dp5829
g10
S'aS'
p5830
sg12
S'1.62000'
p5831
sg14
S'dA'
p5832
sg16
S'1.65000'
p5833
sg18
g540
sg19
S'1.62000'
p5834
sg21
S'1.31000'
p5835
sbtp5836
a(g58
g4
(g5
g6
Ntp5837
Rp5838
(dp5839
g10
S'aS'
p5840
sg12
S'5.02000'
p5841
sg14
S'dA'
p5842
sg16
S'5.05000'
p5843
sg18
g58
sg19
S'5.02000'
p5844
sg21
S'4.96000'
p5845
sbtp5846
asS'iSC_o'
p5847
(lp5848
(g110
g4
(g5
g6
Ntp5849
Rp5850
(dp5851
g10
S'iSC'
p5852
sg12
S'0.65000'
p5853
sg14
g290
sg16
S'0.68000'
p5854
sg18
g110
sg19
S'0.65000'
p5855
sg21
S'0.30000'
p5856
sbtp5857
a(g219
g4
(g5
g6
Ntp5858
Rp5859
(dp5860
g10
S'iSC'
p5861
sg12
S'1.44000'
p5862
sg14
g290
sg16
S'1.47000'
p5863
sg18
g219
sg19
S'1.44000'
p5864
sg21
S'1.14000'
p5865
sbtp5866
asS'sil_n'
p5867
(lp5868
(g121
g4
(g5
g6
Ntp5869
Rp5870
(dp5871
g10
S'sil'
p5872
sg12
S'0.02000'
p5873
sg14
g53
sg16
S'0.23000'
p5874
sg18
g121
sg19
S'0.02000'
p5875
sg21
S'0.00000'
p5876
sbtp5877
a(g47
g4
(g5
g6
Ntp5878
Rp5879
(dp5880
g10
S'sil'
p5881
sg12
S'0.02000'
p5882
sg14
g53
sg16
S'0.29000'
p5883
sg18
g47
sg19
S'0.02000'
p5884
sg21
S'0.00000'
p5885
sbtp5886
a(g540
g4
(g5
g6
Ntp5887
Rp5888
(dp5889
g10
S'sil'
p5890
sg12
S'0.02000'
p5891
sg14
g53
sg16
S'0.16000'
p5892
sg18
g540
sg19
S'0.02000'
p5893
sg21
S'0.00000'
p5894
sbtp5895
a(g455
g4
(g5
g6
Ntp5896
Rp5897
(dp5898
g10
S'sil'
p5899
sg12
S'0.02000'
p5900
sg14
g53
sg16
S'0.13000'
p5901
sg18
g455
sg19
S'0.02000'
p5902
sg21
S'0.00000'
p5903
sbtp5904
a(g367
g4
(g5
g6
Ntp5905
Rp5906
(dp5907
g10
S'sil'
p5908
sg12
S'0.08000'
p5909
sg14
g53
sg16
S'0.18000'
p5910
sg18
g367
sg19
S'0.08000'
p5911
sg21
S'0.00000'
p5912
sbtp5913
a(g389
g4
(g5
g6
Ntp5914
Rp5915
(dp5916
g10
S'sil'
p5917
sg12
S'0.12000'
p5918
sg14
g53
sg16
S'0.20000'
p5919
sg18
g389
sg19
S'0.12000'
p5920
sg21
S'0.00000'
p5921
sbtp5922
a(g1474
g4
(g5
g6
Ntp5923
Rp5924
(dp5925
g10
S'sil'
p5926
sg12
S'0.02000'
p5927
sg14
g53
sg16
S'0.18000'
p5928
sg18
g1474
sg19
S'0.02000'
p5929
sg21
S'0.00000'
p5930
sbtp5931
a(g1452
g4
(g5
g6
Ntp5932
Rp5933
(dp5934
g10
S'sil'
p5935
sg12
S'0.02000'
p5936
sg14
g53
sg16
S'0.22000'
p5937
sg18
g1452
sg19
S'0.02000'
p5938
sg21
S'0.00000'
p5939
sbtp5940
a(g3
g4
(g5
g6
Ntp5941
Rp5942
(dp5943
g10
S'sil'
p5944
sg12
S'0.09000'
p5945
sg14
g53
sg16
S'0.25000'
p5946
sg18
g3
sg19
S'0.09000'
p5947
sg21
S'0.00000'
p5948
sbtp5949
a(g1003
g4
(g5
g6
Ntp5950
Rp5951
(dp5952
g10
S'sil'
p5953
sg12
S'0.02000'
p5954
sg14
g53
sg16
S'0.15000'
p5955
sg18
g1003
sg19
S'0.02000'
p5956
sg21
S'0.00000'
p5957
sbtp5958
asS'iSC_e'
p5959
(lp5960
(g34
g4
(g5
g6
Ntp5961
Rp5962
(dp5963
g10
S'iSC'
p5964
sg12
S'1.02000'
p5965
sg14
g11
sg16
S'1.11000'
p5966
sg18
g34
sg19
S'1.02000'
p5967
sg21
S'0.80000'
p5968
sbtp5969
asS'h_aS'
p5970
(lp5971
(g110
g4
(g5
g6
Ntp5972
Rp5973
(dp5974
g10
g114
sg12
S'1.09000'
p5975
sg14
S'aS'
p5976
sg16
S'1.18000'
p5977
sg18
g110
sg19
S'1.09000'
p5978
sg21
S'0.90000'
p5979
sbtp5980
asS'iSC_a'
p5981
(lp5982
(g161
g4
(g5
g6
Ntp5983
Rp5984
(dp5985
g10
S'iSC'
p5986
sg12
S'1.25000'
p5987
sg14
g244
sg16
S'1.36000'
p5988
sg18
g161
sg19
S'1.25000'
p5989
sg21
S'1.17000'
p5990
sbtp5991
asS'u_k'
p5992
(lp5993
(g3
g4
(g5
g6
Ntp5994
Rp5995
(dp5996
g10
g51
sg12
S'1.42000'
p5997
sg14
g807
sg16
S'1.45000'
p5998
sg18
g3
sg19
S'1.42000'
p5999
sg21
S'1.03000'
p6000
sbtp6001
asS'a_ny'
p6002
(lp6003
(g629
g4
(g5
g6
Ntp6004
Rp6005
(dp6006
g10
g244
sg12
S'0.56000'
p6007
sg14
S'ny'
p6008
sg16
S'0.77000'
p6009
sg18
g629
sg19
S'0.56000'
p6010
sg21
S'0.53000'
p6011
sbtp6012
a(g377
g4
(g5
g6
Ntp6013
Rp6014
(dp6015
g10
g244
sg12
S'1.00000'
p6016
sg14
S'ny'
p6017
sg16
S'1.21000'
p6018
sg18
g377
sg19
S'1.00000'
p6019
sg21
S'0.97000'
p6020
sbtp6021
asS'rr_oS'
p6022
(lp6023
(g58
g4
(g5
g6
Ntp6024
Rp6025
(dp6026
g10
S'rr'
p6027
sg12
S'0.45000'
p6028
sg14
S'oS'
p6029
sg16
S'0.48000'
p6030
sg18
g58
sg19
S'0.45000'
p6031
sg21
S'0.42000'
p6032
sbtp6033
asS'iS_dA'
p6034
(lp6035
(g110
g4
(g5
g6
Ntp6036
Rp6037
(dp6038
g10
S'iS'
p6039
sg12
S'0.24000'
p6040
sg14
S'dA'
p6041
sg16
S'0.30000'
p6042
sg18
g110
sg19
S'0.24000'
p6043
sg21
S'0.21000'
p6044
sbtp6045
a(g58
g4
(g5
g6
Ntp6046
Rp6047
(dp6048
g10
S'iS'
p6049
sg12
S'1.77000'
p6050
sg14
S'dA'
p6051
sg16
S'1.80000'
p6052
sg18
g58
sg19
S'1.77000'
p6053
sg21
S'1.74000'
p6054
sbtp6055
a(g519
g4
(g5
g6
Ntp6056
Rp6057
(dp6058
g10
S'iS'
p6059
sg12
S'1.39000'
p6060
sg14
S'dA'
p6061
sg16
S'1.68000'
p6062
sg18
g519
sg19
S'1.39000'
p6063
sg21
S'1.34000'
p6064
sbtp6065
a(g219
g4
(g5
g6
Ntp6066
Rp6067
(dp6068
g10
S'iS'
p6069
sg12
S'1.10000'
p6070
sg14
S'dA'
p6071
sg16
S'1.14000'
p6072
sg18
g219
sg19
S'1.10000'
p6073
sg21
S'1.07000'
p6074
sbtp6075
asS'r_aS'
p6076
(lp6077
(g161
g4
(g5
g6
Ntp6078
Rp6079
(dp6080
g10
g572
sg12
S'0.89000'
p6081
sg14
S'aS'
p6082
sg16
S'1.00000'
p6083
sg18
g161
sg19
S'0.89000'
p6084
sg21
S'0.82000'
p6085
sbtp6086
asS'a_b'
p6087
(lp6088
(g34
g4
(g5
g6
Ntp6089
Rp6090
(dp6091
g10
g244
sg12
S'0.55000'
p6092
sg14
g38
sg16
S'0.80000'
p6093
sg18
g34
sg19
S'0.55000'
p6094
sg21
S'0.45000'
p6095
sbtp6096
a(g519
g4
(g5
g6
Ntp6097
Rp6098
(dp6099
g10
g244
sg12
S'1.31000'
p6100
sg14
g38
sg16
S'1.34000'
p6101
sg18
g519
sg19
S'1.31000'
p6102
sg21
S'1.23000'
p6103
sbtp6104
as.